(lp0
F0.0
aF0.008660678736310006
aF0.008660678736310006
aF0.007967586484697902
aF0.008313684212818386
aF0.008313684212818386
aF0.008314125418868784
aF0.011433202495006633
aF0.012345408594821295
aF0.009353800375922091
aF0.009006320875109754
aF0.008052977209145998
aF0.007537015100339206
aF0.008660678736310008
aF0.01143322935173766
aF0.010253654645604881
aF0.0076603578951701026
aF0.008659781940938872
aF0.007275391028456931
aF0.012159520766626322
aF0.00866022314698927
aF0.009007237942694686
aF0.007275391028456931
aF0.008575749490751058
aF0.007967586484697902
aF0.014204255311265818
aF0.009006776464430492
aF0.005911935818690822
aF0.019155286850351422
aF0.0064615548573558074
aF0.00866022314698927
aF0.008313684212818388
aF0.008032903149102676
aI0
aI0
aF0.007967586484697902
aF0.008314125418868785
aF0.010477951030896621
aF0.006461554857355807
aF0.009007237942694686
aF0.011084245245254197
aF0.010392534766333943
aF0.010045972333106539
aF0.008003148943537854
aF0.011305420406349999
aF0.008314125418868784
aF0.007967586484697902
aF0.010046462578328043
aF0.007967586484697902
aF0.008314125418868784
aF0.008314125418868785
aI0
aF0.007967586484697902
aI0
aF0.007153750313596778
aF0.009353335670815172
aF0.006461554857355807
aF0.007968027690748298
aF0.008660678736310008
aF0.005607461172667033
aI0
aF0.00521529655965919
aF0.005607461172667033
aF0.023909196709409705
aF0.008314125418868785
aF0.006616935052313665
aF0.01004693073301306
aF0.005931531196902082
aF0.007967586484697902
aF0.010393497646768045
aF0.008314125418868784
aF0.006221248709144151
aI0
aF0.006616935052313665
aF0.00866022314698927
aF0.008660678736310006
aF0.0
aF0.0
aF0.001385287707853075
aF0.00173138543597356
aF0.00173138543597356
aF0.0017318266420239571
aF0.004850903718161806
aF0.010393031311884772
aF0.0027715015990772635
aF0.001992553918535097
aF0.0024244633043153246
aF0.0020783799594651796
aF0.0020783799594651796
aF0.00970181452776412
aF0.007275387294690927
aF0.009356321383996679
aF0.0020774831640940454
aF0.001385287707853075
aF0.00497490304893729
aF0.0009542607341736413
aF0.002424939165849859
aF0.001385287707853075
aF0.003117114349877032
aF0.001385287707853075
aF0.003870069254192302
aF0.00034609772812048515
aF0.003118066073362729
aF0.017582888133234137
aF0.0027696786203350154
aF0.0009542607341736413
aF0.0006077218000027591
aF0.004503821935900824
aI0
aI0
aF0.001385287707853075
aF0.0017318266420239571
aF0.0037257734900951476
aF0.001385287707853075
aF0.002424939165849859
aF0.00450194646840937
aF0.003810235989489116
aF0.00234000992029091
aF0.0027715015990772635
aF0.005803227887231885
aF0.0017318266420239571
aF0.001385287707853075
aF0.003464163801483214
aF0.001385287707853075
aF0.0017318266420239571
aF0.0017318266420239571
aI0
aF0.001385287707853075
aI0
aF0.0009538195281232442
aF0.002771036893970344
aF0.001385287707853075
aF0.0020779243701444425
aF0.0020783799594651796
aF0.0020783799594651796
aI0
aF0.003118066073362729
aF0.0020783799594651796
aF0.01732689793256488
aF0.0017318266420239571
aF0.001385287707853075
aF0.0034646319561682337
aF0.0017318266420239571
aF0.001385287707853075
aF0.0038111988699232177
aF0.0017318266420239571
aF0.0017318266420239571
aI0
aF0.001385287707853075
aF0.002770119826385413
aF0.008660678736310006
aF0.0
aF0.0
aF0.001385287707853075
aF0.00173138543597356
aF0.00173138543597356
aF0.0017318266420239571
aF0.004850903718161806
aF0.010393031311884772
aF0.0027715015990772635
aF0.001992553918535097
aF0.0024244633043153246
aF0.0020783799594651796
aF0.0020783799594651796
aF0.00970181452776412
aF0.007275387294690927
aF0.009356321383996679
aF0.0020774831640940454
aF0.001385287707853075
aF0.00497490304893729
aF0.0009542607341736413
aF0.002424939165849859
aF0.001385287707853075
aF0.003117114349877032
aF0.001385287707853075
aF0.003870069254192302
aF0.00034609772812048515
aF0.003118066073362729
aF0.017582888133234137
aF0.0027696786203350154
aF0.0009542607341736413
aF0.0006077218000027591
aF0.004503821935900824
aI0
aI0
aF0.001385287707853075
aF0.0017318266420239571
aF0.0037257734900951476
aF0.001385287707853075
aF0.002424939165849859
aF0.00450194646840937
aF0.003810235989489116
aF0.00234000992029091
aF0.0027715015990772635
aF0.005803227887231885
aF0.0017318266420239571
aF0.001385287707853075
aF0.003464163801483214
aF0.001385287707853075
aF0.0017318266420239571
aF0.0017318266420239571
aI0
aF0.001385287707853075
aI0
aF0.0009538195281232442
aF0.002771036893970344
aF0.001385287707853075
aF0.0020779243701444425
aF0.0020783799594651796
aF0.0020783799594651796
aI0
aF0.003118066073362729
aF0.0020783799594651796
aF0.01732689793256488
aF0.0017318266420239571
aF0.001385287707853075
aF0.0034646319561682337
aF0.0017318266420239571
aF0.001385287707853075
aF0.0038111988699232177
aF0.0017318266420239571
aF0.0017318266420239571
aI0
aF0.001385287707853075
aF0.002770119826385413
aF0.007967586484697902
aF0.001385287707853075
aF0.001385287707853075
aF0.0
aF0.00034609772812048515
aF0.00034609772812048515
aF0.0010387343904118527
aF0.004157811466549702
aF0.009699939060272667
aF0.002078409347465159
aF0.0017309298466528231
aF0.00173137105270322
aF0.001385287707853075
aF0.001385287707853075
aF0.007885058640181216
aF0.00562851017106467
aF0.008663229132384574
aF0.0013843909124819406
aF0.0006921954562409703
aF0.006234781170553625
aF0.001384832118532338
aF0.001731846914237754
aF0.0006921954562409703
aF0.0024240220982649275
aF0.0006921954562409703
aF0.006236668826567916
aF0.00173138543597356
aF0.0024249738217506246
aF0.016579093713792584
aF0.0013843909124819406
aF0.001384832118532338
aF0.0010382931843614554
aF0.003810729684288719
aI0
aI0
aF0.0006921954562409703
aF0.0010387343904118527
aF0.004156344874453844
aF0.0006921954562409703
aF0.001731846914237754
aF0.003808854216797265
aF0.0031171437378770114
aF0.002770581304649607
aF0.002078409347465159
aF0.005541603815349611
aF0.0010387343904118527
aF0.0006921954562409703
aF0.0027710715498711095
aF0.0006921954562409703
aF0.0010387343904118527
aF0.0010387343904118527
aI0
aF0.0006921954562409703
aI0
aF0.0013843909124819406
aF0.0020779446423582395
aF0.0006921954562409703
aF0.0013848321185323377
aF0.001385287707853075
aF0.001385287707853075
aI0
aF0.0024249738217506246
aF0.001385287707853075
aF0.01663380568095278
aF8.494951839769862e-05
aF0.0006921954562409703
aF0.002771539704556129
aF0.0010387343904118527
aF0.0006921954562409703
aF0.0031181066183111135
aF0.0010387343904118527
aF0.0010387343904118527
aI0
aF0.0006921954562409703
aF0.0020770275747733083
aF0.008313684212818386
aF0.00173138543597356
aF0.00173138543597356
aF0.00034609772812048515
aF0.0
aF0.0
aF0.0013848321185323377
aF0.004503909194670187
aF0.010046036788393152
aF0.002424507075585644
aF0.0020770275747733083
aF0.002077468780823705
aF0.00173138543597356
aF0.00173138543597356
aF0.0082311563683017
aF0.005974607899185154
aF0.009009326860505061
aF0.0017304886406024258
aF0.0010382931843614554
aF0.00658087889867411
aF0.001730929846652823
aF0.000827959620674879
aF0.0010382931843614554
aF0.0027701198263854125
aF0.00034609772812048515
aF0.006582766554688401
aF0.0020774831640940454
aF0.0027710715498711095
aF0.01692519144191307
aF0.0017304886406024258
aF0.001730929846652823
aF0.0013843909124819408
aF0.004156827412409204
aI0
aI0
aF0.0010382931843614554
aF0.0013848321185323377
aF0.00450244260257433
aF0.0010382931843614554
aF0.0020779446423582395
aF0.00346275648867678
aF0.0034632414659974964
aF0.0031166790327700916
aF0.002424507075585644
aF0.005887701543470096
aF0.0013848321185323377
aF0.0010382931843614554
aF0.0031171692779915945
aF0.0010382931843614554
aF0.0013848321185323377
aF0.001384832118532338
aI0
aF0.0010382931843614554
aI0
aF0.0017304886406024258
aF0.0024240423704787245
aF0.0010382931843614554
aF0.001730929846652823
aF0.00173138543597356
aF0.00173138543597356
aI0
aF0.0027710715498711095
aF0.00173138543597356
aF0.014682393815200517
aF0.00043104724651818374
aF0.0010382931843614554
aF0.0031176374326766145
aF0.0013848321185323377
aF0.0010382931843614554
aF0.0018955156093465953
aF0.0013848321185323377
aF0.0013848321185323377
aI0
aF0.0010382931843614554
aF0.0014693404308796392
aF0.008313684212818386
aF0.00173138543597356
aF0.00173138543597356
aF0.00034609772812048515
aF0.0
aF0.0
aF0.0013848321185323377
aF0.004503909194670187
aF0.010046036788393152
aF0.002424507075585644
aF0.0020770275747733083
aF0.002077468780823705
aF0.00173138543597356
aF0.00173138543597356
aF0.0082311563683017
aF0.005974607899185154
aF0.009009326860505061
aF0.0017304886406024258
aF0.0010382931843614554
aF0.00658087889867411
aF0.001730929846652823
aF0.000827959620674879
aF0.0010382931843614554
aF0.0027701198263854125
aF0.00034609772812048515
aF0.006582766554688401
aF0.0020774831640940454
aF0.0027710715498711095
aF0.01692519144191307
aF0.0017304886406024258
aF0.001730929846652823
aF0.0013843909124819408
aF0.004156827412409204
aI0
aI0
aF0.0010382931843614554
aF0.0013848321185323377
aF0.00450244260257433
aF0.0010382931843614554
aF0.0020779446423582395
aF0.00346275648867678
aF0.0034632414659974964
aF0.0031166790327700916
aF0.002424507075585644
aF0.005887701543470096
aF0.0013848321185323377
aF0.0010382931843614554
aF0.0031171692779915945
aF0.0010382931843614554
aF0.0013848321185323377
aF0.001384832118532338
aI0
aF0.0010382931843614554
aI0
aF0.0017304886406024258
aF0.0024240423704787245
aF0.0010382931843614554
aF0.001730929846652823
aF0.00173138543597356
aF0.00173138543597356
aI0
aF0.0027710715498711095
aF0.00173138543597356
aF0.014682393815200517
aF0.00043104724651818374
aF0.0010382931843614554
aF0.0031176374326766145
aF0.0013848321185323377
aF0.0010382931843614554
aF0.0018955156093465953
aF0.0013848321185323377
aF0.0013848321185323377
aI0
aF0.0010382931843614554
aF0.0014693404308796392
aF0.008314125418868784
aF0.0017318266420239571
aF0.0017318266420239571
aF0.0010387343904118527
aF0.0013848321185323377
aF0.0013848321185323377
aF0.0
aF0.004504350400720584
aF0.01004647799444355
aF0.002424948281636041
aF0.002769664237064676
aF0.0020779099868741026
aF0.0017318266420239571
aF0.0017318266420239571
aF0.009355261210322898
aF0.006928833977249705
aF0.009009768066555457
aF0.001730929846652823
aF0.0010387343904118527
aF0.0072735155609654776
aF0.00173137105270322
aF0.002078385848408636
aF0.0010387343904118527
aF0.0027705610324358096
aF0.0010387343904118527
aF0.007275403216979769
aF0.002077924370144442
aF0.0027715127559215067
aF0.016267121742039082
aF0.0024231253028937933
aF0.00173137105270322
aF0.001384832118532338
aF0.004157268618459601
aI0
aI0
aF0.0010387343904118527
aF0.0013852733245827348
aF0.004502883808624727
aF0.0010387343904118527
aF0.002078385848408636
aF0.004155393150968148
aF0.0034636826720478935
aF0.0031171202388204887
aF0.002424948281636041
aF0.006580338205761463
aF0.0013852733245827348
aF0.0010387343904118527
aF0.003117610484041992
aF0.0010387343904118527
aF0.0013852733245827348
aF0.0013852733245827348
aI0
aF0.0010387343904118527
aI0
aF0.001730929846652823
aF0.0024244835765291216
aF0.0010387343904118527
aF0.00173137105270322
aF0.0017318266420239571
aF0.0017318266420239571
aI0
aF0.0027715127559215067
aF0.0017318266420239571
aF0.016980344615123658
aF0.0013852733245827348
aF0.0010387343904118527
aF0.0031180786387270116
aF0.0013852733245827348
aF0.0010387343904118527
aF0.0034646455524819956
aF0.0013852733245827348
aF0.0013852733245827348
aI0
aF0.0010387343904118527
aF0.0024235665089441904
aF0.011433202495006633
aF0.004850903718161806
aF0.004850903718161806
aF0.004157811466549702
aF0.004503909194670187
aF0.004503909194670187
aF0.004504350400720584
aF0.0
aF0.011445610789054405
aF0.00554402535777389
aF0.005888741313202524
aF0.005196987063011952
aF0.004850903718161806
aF0.004850903718161806
aF0.012474338286460747
aF0.010047911053387554
aF0.012128845142693308
aF0.003130062641263678
aF0.004157811466549702
aF0.010392592637103328
aF0.002060954759211124
aF0.005197462924546485
aF0.004157811466549702
aF0.004169693827046665
aF0.004157811466549702
aF0.006046257437134965
aF0.005197001446282291
aF0.005890589832059355
aF0.01868958215827162
aF0.005542202379031642
aF0.002060954759211124
aF0.002783964913143193
aF0.007276345694597451
aI0
aI0
aF0.004157811466549702
aF0.004504350400720584
aF0.007621960884762575
aF0.004157811466549702
aF0.005197462924546485
aF0.007274470227105997
aF0.006582759748185743
aF0.006236197314958338
aF0.00554402535777389
aF0.009699415281899312
aF0.004504350400720584
aF0.004157811466549702
aF0.00623668756017984
aF0.004157811466549702
aF0.004504350400720584
aF0.004504350400720584
aI0
aF0.004157811466549702
aI0
aF0.0048500069227906725
aF0.00554356065266697
aF0.004157811466549702
aF0.004850448128841069
aF0.004850903718161806
aF0.004850903718161806
aI0
aF0.005890589832059355
aF0.004850903718161806
aF0.02009942169126151
aF0.004504350400720584
aF0.004157811466549702
aF0.00623715571486486
aF0.004504350400720584
aF0.004157811466549702
aF0.006583722628619844
aF0.004504350400720584
aF0.004504350400720584
aI0
aF0.004157811466549702
aF0.00554264358508204
aF0.012345408594821295
aF0.010393031311884772
aF0.010393031311884772
aF0.009699939060272667
aF0.010046036788393152
aF0.010046036788393152
aF0.01004647799444355
aF0.011445610789054405
aF0.0
aF0.005463969099700254
aF0.010045595582342755
aF0.009057626798587683
aF0.008314651352419593
aF0.010393031311884772
aF0.01563387165821701
aF0.012989356379256313
aF0.017670972736416272
aF0.006876908043102617
aF0.008576275424301866
aF0.005854367274910944
aF0.00943879085054988
aF0.010739590518269452
aF0.009699939060272667
aF0.008661190286590474
aF0.009699939060272667
aF0.013732837993143069
aF0.010739129040005256
aF0.011432717425782321
aF0.01649499240649378
aF0.009006881464769655
aF0.00943879085054988
aF0.009353841332152182
aF0.01113698543017318
aI0
aI0
aF0.009699939060272667
aF0.008661204669860815
aF0.011482600620338306
aF0.008746154188258514
aF0.010739590518269452
aF0.012124402364587991
aF0.012124887341908709
aF0.010824540036667149
aF0.008440987122027444
aF0.008672006383239129
aF0.01004647799444355
aF0.009699939060272667
aF0.011778815153902805
aF0.009699939060272667
aF0.01004647799444355
aF0.01004647799444355
aI0
aF0.008746154188258512
aI0
aF0.009699939060272667
aF0.011085688246389936
aF0.008746154188258514
aF0.006191244131546788
aF0.010393031311884772
aF0.010393031311884772
aI0
aF0.011432717425782321
aF0.010393031311884772
aF0.02564154928498447
aF0.01004647799444355
aF0.009699939060272667
aF0.011779283308587827
aF0.01004647799444355
aF0.009699939060272667
aF0.012125850222342811
aF0.01004647799444355
aF0.01004647799444355
aI0
aF0.009699939060272667
aF0.010392575722564034
aF0.009353800375922091
aF0.0027715015990772635
aF0.0027715015990772635
aF0.002078409347465159
aF0.002424507075585644
aF0.002424507075585644
aF0.002424948281636041
aF0.00554402535777389
aF0.005463969099700254
aF0.0
aF0.003809339194117982
aF0.0031175849439274085
aF0.0027715015990772635
aF0.0027715015990772635
aF0.010394936167376204
aF0.007968508934303013
aF0.010049443023608764
aF0.0014199533713218923
aF0.002078409347465159
aF0.004239160409648984
aF0.0027710460097565264
aF0.0031180608054619426
aF0.002078409347465159
aF0.003810235989489116
aF0.002078409347465159
aF0.008315078174033074
aF0.0031175993271977485
aF0.0038111877129748126
aF0.018049021976432787
aF0.0034628002599470997
aF0.0027710460097565264
aF0.002424507075585644
aF0.005196943575512907
aI0
aI0
aF0.002078409347465159
aF0.002424948281636041
aF0.005542558765678033
aF0.002078409347465159
aF0.0031180608054619426
aF0.005195068108021454
aF0.0045033576291012
aF0.004156795195873796
aF0.0034646232386893474
aF0.004529787575184624
aF0.002424948281636041
aF0.002078409347465159
aF0.0041572854410952985
aF0.002078409347465159
aF0.002424948281636041
aF0.002424948281636041
aI0
aF0.002078409347465159
aI0
aF0.0027706048037061293
aF0.003464158533582428
aF0.002078409347465159
aF0.0006781693000318934
aF0.0027715015990772635
aF0.0027715015990772635
aI0
aF0.0038111877129748126
aF0.0027715015990772635
aF0.018020019572176967
aF0.002424948281636041
aF0.002078409347465159
aF0.004157753595780318
aF0.002424948281636041
aF0.002078409347465159
aF0.004504320509535302
aF0.002424948281636041
aF0.002424948281636041
aI0
aF0.002078409347465159
aF0.003463241465997497
aF0.009006320875109754
aF0.001992553918535097
aF0.001992553918535097
aF0.0017309298466528231
aF0.0020770275747733083
aF0.0020770275747733083
aF0.002769664237064676
aF0.005888741313202524
aF0.010045595582342755
aF0.003809339194117982
aF0.0
aF0.003462300899356043
aF0.003116217554505898
aF0.0031162175545058983
aF0.009615988486834039
aF0.007359440017717492
aF0.010394158979037397
aF0.0021615358871206096
aF0.0024231253028937933
aF0.004537590803998507
aF0.0024235665089441904
aF0.003462776760890577
aF0.0017309298466528231
aF0.00415495194491775
aF0.0024231253028937933
aF0.006205943715808631
aF0.0016464561904146117
aF0.004155903668403447
aF0.012656219786879312
aF0.0024231253028937933
aF0.0024235665089441904
aF0.0020770275747733083
aF0.005541659530941542
aI0
aI0
aF0.0024231253028937937
aF0.0013843909124819406
aF0.005195079264865697
aF0.0024231253028937937
aF0.0022127917392072167
aF0.004416120427479287
aF0.0038942887125156807
aF0.0038093156950614595
aF0.003809339194117982
aF0.004376568312063949
aF0.002769664237064676
aF0.0024231253028937937
aF0.004502001396523933
aF0.0024231253028937937
aF0.002769664237064676
aF0.002769664237064676
aI0
aF0.001469340430879639
aI0
aF0.0024231253028937933
aF0.003116679032770092
aF0.0024231253028937937
aF0.003115761965185161
aF0.0031162175545058983
aF0.0031162175545058983
aI0
aF0.004155903668403447
aF0.0031162175545058983
aF0.018364735527605598
aF0.0018158793650505216
aF0.0024231253028937937
aF0.004502469551208952
aF0.002769664237064676
aF0.0024231253028937937
aF0.004849036464963936
aF0.002769664237064676
aF0.002769664237064676
aI0
aF0.0024231253028937937
aF0.0024235665089441904
aF0.008052977209145998
aF0.0024244633043153246
aF0.0024244633043153246
aF0.00173137105270322
aF0.002077468780823705
aF0.002077468780823705
aF0.0020779099868741026
aF0.005196987063011952
aF0.009057626798587683
aF0.0031175849439274085
aF0.003462300899356043
aF0.0
aF0.0007429754461680896
aF0.0024244633043153246
aF0.010047897872614264
aF0.007621470639541073
aF0.009702404728846824
aF0.0024235665089441904
aF0.0007775861806890661
aF0.007012367351242691
aF0.0024240077149945876
aF0.0027710225107000037
aF0.00173137105270322
aF0.0017817098365799423
aF0.00173137105270322
aF0.007968039879271136
aF0.0027705610324358096
aF0.0034641494182128746
aF0.017145065370026778
aF0.003115761965185161
aF0.0024240077149945876
aF0.0020774687808237055
aF0.004849905280750968
aI0
aI0
aF0.00173137105270322
aF0.002077909986874102
aF0.003810247146333359
aF0.00173137105270322
aF0.0027710225107000037
aF0.0048480298132595155
aF0.0041563193343392615
aF0.0038097569011118567
aF0.0031175849439274085
aF0.005887701543470096
aF0.0020779099868741026
aF0.00173137105270322
aF0.0038102471463333596
aF0.00173137105270322
aF0.0020779099868741026
aF0.002077909986874102
aI0
aF0.00173137105270322
aI0
aF0.0024235665089441904
aF0.0031171202388204896
aF0.00173137105270322
aF0.0014702228429804335
aF0.0024244633043153246
aF0.0024244633043153246
aI0
aF0.0034641494182128746
aF0.0024244633043153246
aF0.017672981277415026
aF0.002077909986874102
aF0.00173137105270322
aF0.0038107153010183787
aF0.002077909986874102
aF0.00173137105270322
aF0.004157282214773363
aF0.0020779099868741026
aF0.002077909986874102
aI0
aF0.00173137105270322
aF0.0031162031712355575
aF0.007537015100339206
aF0.0020783799594651796
aF0.0020783799594651796
aF0.001385287707853075
aF0.00173138543597356
aF0.00173138543597356
aF0.0017318266420239571
aF0.004850903718161806
aF0.008314651352419593
aF0.0027715015990772635
aF0.003116217554505898
aF0.0007429754461680896
aF0.0
aF0.0020783799594651796
aF0.00970181452776412
aF0.007275387294690927
aF0.009356321383996679
aF0.0020774831640940454
aF0.0002616240718822739
aF0.0064964052424359
aF0.002077924370144442
aF0.002424939165849859
aF0.001385287707853075
aF0.0010387343904118527
aF0.001385287707853075
aF0.007621956534420991
aF0.002424477687585665
aF0.003118066073362729
aF0.017582888133234137
aF0.0027696786203350154
aF0.002077924370144442
aF0.00173138543597356
aF0.004503821935900824
aI0
aI0
aF0.001385287707853075
aF0.0017318266420239571
aF0.003167949267918714
aF0.001385287707853075
aF0.002424939165849859
aF0.00450194646840937
aF0.003810235989489116
aF0.003463673556261711
aF0.0027715015990772635
aF0.00524540366505545
aF0.0017318266420239571
aF0.001385287707853075
aF0.003464163801483214
aF0.001385287707853075
aF0.0017318266420239571
aF0.0017318266420239571
aI0
aF0.001385287707853075
aI0
aF0.0020774831640940454
aF0.002771036893970344
aF0.001385287707853075
aF0.0009542607341736413
aF0.0020783799594651796
aF0.0020783799594651796
aI0
aF0.003118066073362729
aF0.0020783799594651796
aF0.01732689793256488
aF0.0017318266420239571
aF0.001385287707853075
aF0.0034646319561682337
aF0.0017318266420239571
aF0.001385287707853075
aF0.0038111988699232177
aF0.0017318266420239571
aF0.0017318266420239571
aI0
aF0.001385287707853075
aF0.002770119826385413
aF0.008660678736310008
aF0.0020783799594651796
aF0.0020783799594651796
aF0.001385287707853075
aF0.00173138543597356
aF0.00173138543597356
aF0.0017318266420239571
aF0.004850903718161806
aF0.010393031311884772
aF0.0027715015990772635
aF0.0031162175545058983
aF0.0024244633043153246
aF0.0020783799594651796
aF0.0
aF0.00970181452776412
aF0.007275387294690928
aF0.009356321383996679
aF0.0020774831640940454
aF0.001385287707853075
aF0.0076200688784067005
aF0.002077924370144442
aF0.002424939165849859
aF0.001385287707853075
aF0.0031171143498770317
aF0.001385287707853075
aF0.007621956534420991
aF0.002424477687585665
aF0.003118066073362729
aF0.018706551769204938
aF0.0027696786203350154
aF0.002077924370144442
aF0.00173138543597356
aF0.004503821935900824
aI0
aI0
aF0.001385287707853075
aF0.0017318266420239571
aF0.004849437126065948
aF0.001385287707853075
aF0.002424939165849859
aF0.00450194646840937
aF0.003810235989489116
aF0.003463673556261711
aF0.0027715015990772635
aF0.006926891523202686
aF0.0017318266420239571
aF0.001385287707853075
aF0.003464163801483214
aF0.001385287707853075
aF0.0017318266420239571
aF0.0017318266420239571
aI0
aF0.001385287707853075
aI0
aF0.0020774831640940454
aF0.002771036893970344
aF0.001385287707853075
aF0.0020779243701444425
aF0.0020783799594651796
aF0.0020783799594651796
aI0
aF0.003118066073362729
aF0.0020783799594651796
aF0.01732689793256488
aF0.0017318266420239571
aF0.001385287707853075
aF0.0034646319561682337
aF0.0017318266420239571
aF0.001385287707853075
aF0.0038111988699232177
aF0.0017318266420239571
aF0.0017318266420239571
aI0
aF0.001385287707853075
aF0.002770119826385413
aF0.01143322935173766
aF0.00970181452776412
aF0.00970181452776412
aF0.007885058640181216
aF0.0082311563683017
aF0.0082311563683017
aF0.009355261210322898
aF0.012474338286460747
aF0.01563387165821701
aF0.010394936167376204
aF0.009615988486834039
aF0.010047897872614264
aF0.00970181452776412
aF0.00970181452776412
aF0.0
aF0.0007580551102768836
aF0.01697975595229562
aF0.009700917732392986
aF0.009008722276152016
aF0.01411983981073484
aF0.009701358938443384
aF0.010048373734148802
aF0.009008722276152016
aF0.010740548918175972
aF0.009008722276152016
aF0.014121727466749131
aF0.010047912255884606
aF0.010741500641661671
aF0.01635964242933815
aF0.007763417925321061
aF0.009701358938443384
aF0.009354820004272502
aF0.00907403894055679
aI0
aI0
aF0.009008722276152016
aF0.009355261210322898
aF0.012472871694364888
aF0.007502690648809921
aF0.010048373734148802
aF0.012125381036708311
aF0.011433670557788059
aF0.006199059490324739
aF0.010394936167376204
aF0.013426662455530826
aF0.0093552612103229
aF0.009008722276152016
aF0.011087598369782155
aF0.009008722276152016
aF0.0093552612103229
aF0.009355261210322898
aI0
aF0.009008722276152016
aI0
aF0.009700917732392986
aF0.005506422828033372
aF0.007502690648809921
aF0.009701358938443384
aF0.00970181452776412
aF0.00970181452776412
aI0
aF0.010741500641661671
aF0.00970181452776412
aF0.024950332500863825
aF0.0076737733521756646
aF0.009008722276152016
aF0.011088066524467175
aF0.009355261210322898
aF0.009008722276152016
aF0.01143463343822216
aF0.0093552612103229
aF0.009355261210322898
aI0
aF0.009008722276152016
aF0.010393554394684354
aF0.010253654645604881
aF0.007275387294690927
aF0.007275387294690927
aF0.00562851017106467
aF0.005974607899185154
aF0.005974607899185154
aF0.006928833977249705
aF0.010047911053387554
aF0.012989356379256313
aF0.007968508934303013
aF0.007359440017717492
aF0.007621470639541073
aF0.007275387294690927
aF0.007275387294690928
aF0.0007580551102768836
aF0.0
aF0.014553328719222429
aF0.007274490499319794
aF0.006582295043078824
aF0.011171095885377322
aF0.00727493170537019
aF0.007621946501075607
aF0.006582295043078824
aF0.00831412168510278
aF0.006582295043078824
aF0.01091139412561843
aF0.007621485022811413
aF0.008315073408588477
aF0.01450659612780543
aF0.00576291606186325
aF0.00727493170537019
aF0.006928392771199309
aF0.007311726870784871
aI0
aI0
aF0.006582295043078824
aF0.006928833977249705
aF0.010046444461291697
aF0.005332310021395463
aF0.007621946501075607
aF0.009006758347394148
aF0.009007243324714864
aF0.003358673163490653
aF0.007968508934303013
aF0.011170113986414279
aF0.006928833977249705
aF0.006582295043078824
aF0.008661171136708962
aF0.006582295043078824
aF0.006928833977249705
aF0.006928833977249705
aI0
aF0.006582295043078824
aI0
aF0.006582295043078824
aF0.00361982137321344
aF0.005332310021395463
aF0.007274931705370191
aF0.007275387294690928
aF0.007275387294690928
aI0
aF0.008315073408588477
aF0.007275387294690928
aF0.022523905267790627
aF0.00554356065266697
aF0.006582295043078824
aF0.008661639291393982
aF0.006928833977249705
aF0.006582295043078824
aF0.009008206205148967
aF0.006928833977249705
aF0.006928833977249705
aI0
aF0.006582295043078824
aF0.007274931705370191
aF0.0076603578951701026
aF0.009356321383996679
aF0.009356321383996679
aF0.008663229132384574
aF0.009009326860505061
aF0.009009326860505061
aF0.009009768066555457
aF0.012128845142693308
aF0.017670972736416272
aF0.010049443023608764
aF0.010394158979037397
aF0.009702404728846824
aF0.009356321383996679
aF0.009356321383996679
aF0.01697975595229562
aF0.014553328719222429
aF0.0
aF0.009355424588625545
aF0.008663229132384574
aF0.014898010302938199
aF0.009355865794675941
aF0.009702880590381359
aF0.008663229132384574
aF0.010395055774408532
aF0.008663229132384574
aF0.014899897958952493
aF0.009702419112117163
aF0.010396007497894228
aF0.025984493193736434
aF0.010047620044866515
aF0.009355865794675941
aF0.009009326860505058
aF0.011781763360432322
aI0
aI0
aF0.008663229132384574
aF0.009009768066555457
aF0.012127378550597447
aF0.008663229132384574
aF0.009702880590381359
aF0.011779887892940868
aF0.011088177414020616
aF0.01074161498079321
aF0.010049443023608764
aF0.014204832947734183
aF0.009009768066555457
aF0.008663229132384574
aF0.010742105226014712
aF0.008663229132384574
aF0.009009768066555457
aF0.009009768066555457
aI0
aF0.008663229132384574
aI0
aF0.007257233366563124
aF0.010048978318501843
aF0.008663229132384574
aF0.009355865794675943
aF0.009356321383996679
aF0.004648253643678333
aI0
aF0.002891171355326362
aF0.004648253643678333
aF0.02460483935709638
aF0.009009768066555457
aF0.008663229132384574
aF0.010742573380699734
aF0.005485451497735314
aF0.008663229132384574
aF0.011089140294454718
aF0.009009768066555457
aF0.009009768066555457
aI0
aF0.008663229132384574
aF0.010048061250916913
aF0.008659781940938872
aF0.0020774831640940454
aF0.0020774831640940454
aF0.0013843909124819406
aF0.0017304886406024258
aF0.0017304886406024258
aF0.001730929846652823
aF0.003130062641263678
aF0.006876908043102617
aF0.0014199533713218923
aF0.0021615358871206096
aF0.0024235665089441904
aF0.0020774831640940454
aF0.0020774831640940454
aF0.009700917732392986
aF0.007274490499319794
aF0.009355424588625545
aF0.0
aF0.0013843909124819406
aF0.005159355583679317
aF0.0011232427027591542
aF0.0024240423704787245
aF0.0013843909124819408
aF0.0024240220982649275
aF0.0013843909124819406
aF0.006371074717366496
aF0.0024235808922145304
aF0.0031171692779915945
aF0.015709023213194444
aF0.0027687818249638816
aF0.0011232427027591542
aF0.0010382931843614554
aF0.00450292514052969
aI0
aI0
aF0.0013843909124819408
aF0.0007771449746386689
aF0.0048485403306948146
aF0.0013843909124819408
aF0.0024240423704787245
aF0.004501049673038235
aF0.003809339194117982
aF0.003462776760890577
aF0.002770604803706129
aF0.005676009706148191
aF0.001730929846652823
aF0.0013843909124819408
aF0.0034632670061120795
aF0.0013843909124819408
aF0.001730929846652823
aF0.001730929846652823
aI0
aF0.0006921954562409703
aI0
aF0.0020765863687229108
aF0.0027701400985992095
aF0.0013843909124819408
aF0.0011232427027591542
aF0.0020774831640940454
aF0.0020774831640940454
aI0
aF0.0031171692779915945
aF0.0020774831640940454
aF0.017326001137193747
aF0.001730929846652823
aF0.0013843909124819408
aF0.0034637351607970995
aF0.001730929846652823
aF0.0013843909124819408
aF0.003810302074552084
aF0.001730929846652823
aF0.001730929846652823
aI0
aF0.0013843909124819408
aF0.0027692230310142787
aF0.007275391028456931
aF0.001385287707853075
aF0.001385287707853075
aF0.0006921954562409703
aF0.0010382931843614554
aF0.0010382931843614554
aF0.0010387343904118527
aF0.004157811466549702
aF0.008576275424301866
aF0.002078409347465159
aF0.0024231253028937933
aF0.0007775861806890661
aF0.0002616240718822739
aF0.001385287707853075
aF0.009008722276152016
aF0.006582295043078824
aF0.008663229132384574
aF0.0013843909124819406
aF0.0
aF0.006234781170553625
aF0.001384832118532338
aF0.001731846914237754
aF0.0006921954562409703
aF0.0013003584622941265
aF0.0006921954562409703
aF0.006928864282808887
aF0.00173138543597356
aF0.0024249738217506246
aF0.017321264061351864
aF0.0020765863687229108
aF0.001384832118532338
aF0.0010382931843614554
aF0.003810729684288719
aI0
aI0
aF0.0006921954562409703
aF0.0010387343904118527
aF0.0032025600024396905
aF0.0006921954562409703
aF0.001731846914237754
aF0.003808854216797265
aF0.0031171437378770114
aF0.002770581304649607
aF0.002078409347465159
aF0.005280014399576427
aF0.0010387343904118527
aF0.0006921954562409703
aF0.0027710715498711095
aF0.0006921954562409703
aF0.0010387343904118527
aF0.0010387343904118527
aI0
aF0.0006921954562409703
aI0
aF0.0013843909124819406
aF0.0020779446423582395
aF0.0006921954562409703
aF0.0006926366622913674
aF0.001385287707853075
aF0.001385287707853075
aI0
aF0.0024249738217506246
aF0.001385287707853075
aF0.01663380568095278
aF0.0010387343904118527
aF0.0006921954562409703
aF0.002771539704556129
aF0.0010387343904118527
aF0.0006921954562409703
aF0.0031181066183111135
aF0.0010387343904118527
aF0.0010387343904118527
aI0
aF0.0006921954562409703
aF0.0020770275747733083
aF0.012159520766626322
aF0.00497490304893729
aF0.00497490304893729
aF0.006234781170553625
aF0.00658087889867411
aF0.00658087889867411
aF0.0072735155609654776
aF0.010392592637103328
aF0.005854367274910944
aF0.004239160409648984
aF0.004537590803998507
aF0.007012367351242691
aF0.0064964052424359
aF0.0076200688784067005
aF0.01411983981073484
aF0.011171095885377322
aF0.014898010302938199
aF0.005159355583679317
aF0.006234781170553625
aF0.0
aF0.006268961856701726
aF0.007966628084791379
aF0.006926976626794596
aF0.007535139632847751
aF0.006926976626794596
aF0.006369542817698385
aF0.004628805320816805
aF0.007225389188504002
aF0.01461409021888323
aF0.007619172083035566
aF0.006268961856701726
aF0.005922422922530844
aF0.010045510854842345
aI0
aI0
aF0.006926976626794596
aF0.0058882422363827425
aF0.008086689740609079
aF0.006926976626794596
aF0.006716643063108019
aF0.008227776295139119
aF0.008398140036416483
aF0.006700926170804841
aF0.008313190518018784
aF0.004914132383559818
aF0.0072735155609654776
aF0.006926976626794596
aF0.009005852720424735
aF0.006926976626794596
aF0.0072735155609654776
aF0.0072735155609654776
aI0
aF0.005973191754780441
aI0
aF0.005576325194410359
aF0.007620530356670895
aF0.006926976626794596
aF0.004544823610878289
aF0.0076200688784067005
aF0.0076200688784067005
aI0
aF0.00865975499230425
aF0.0076200688784067005
aF0.0228685868515064
aF0.006319730688951324
aF0.006234781170553625
aF0.009006320875109754
aF0.0072735155609654776
aF0.006926976626794596
aF0.009352887788864738
aF0.0072735155609654776
aF0.006319730688951325
aI0
aF0.006234781170553625
aF0.006927417832844993
aF0.00866022314698927
aF0.0009542607341736413
aF0.0009542607341736413
aF0.001384832118532338
aF0.001730929846652823
aF0.001730929846652823
aF0.00173137105270322
aF0.002060954759211124
aF0.00943879085054988
aF0.0027710460097565264
aF0.0024235665089441904
aF0.0024240077149945876
aF0.002077924370144442
aF0.002077924370144442
aF0.009701358938443384
aF0.00727493170537019
aF0.009355865794675941
aF0.0011232427027591542
aF0.001384832118532338
aF0.006268961856701726
aF0.0
aF0.0024244835765291216
aF0.001384832118532338
aF0.002162873888542141
aF0.001384832118532338
aF0.003951359176074907
aF0.0013003584622941267
aF0.003117610484041992
aF0.016628627399060496
aF0.0027692230310142783
aF0.0
aF8.494951839769862e-05
aF0.004503366346580086
aI0
aI0
aF0.001384832118532338
aF0.00173137105270322
aF0.004156786080504241
aF0.001384832118532338
aF0.0024244835765291216
aF0.004501490879088633
aF0.0038097804001683785
aF0.0027710225107000037
aF0.0027710460097565264
aF0.006234240477640978
aF0.00173137105270322
aF0.001384832118532338
aF0.0034637082121624775
aF0.001384832118532338
aF0.00173137105270322
aF0.00173137105270322
aI0
aF0.001384832118532338
aI0
aF0.001384832118532338
aF0.002770581304649607
aF0.001384832118532338
aF0.002077468780823705
aF0.002077924370144442
aF0.002077924370144442
aI0
aF0.003117610484041992
aF0.002077924370144442
aF0.017326442343244146
aF0.00173137105270322
aF0.001384832118532338
aF0.003464176366847496
aF0.00173137105270322
aF0.001384832118532338
aF0.003810743280602481
aF0.00173137105270322
aF0.00173137105270322
aI0
aF0.001384832118532338
aF0.0027696642370646754
aF0.009007237942694686
aF0.002424939165849859
aF0.002424939165849859
aF0.001731846914237754
aF0.000827959620674879
aF0.000827959620674879
aF0.002078385848408636
aF0.005197462924546485
aF0.010739590518269452
aF0.0031180608054619426
aF0.003462776760890577
aF0.0027710225107000037
aF0.002424939165849859
aF0.002424939165849859
aF0.010048373734148802
aF0.007621946501075607
aF0.009702880590381359
aF0.0024240423704787245
aF0.001731846914237754
aF0.007966628084791379
aF0.0024244835765291216
aF0.0
aF0.001731846914237754
aF0.0034636735562617116
aF0.00048186189255439377
aF0.00796851574080567
aF0.002771036893970344
aF0.0034646252797474082
aF0.019053110975589618
aF0.003116237826719695
aF0.0024244835765291216
aF0.0020779446423582395
aF0.004850381142285503
aI0
aI0
aF0.001731846914237754
aF0.002078385848408636
aF0.005195996332450627
aF0.001731846914237754
aF0.002771498372234538
aF0.003598520653110689
aF0.004156795195873795
aF0.0038102327626463907
aF0.0031180608054619426
aF0.007273450729587365
aF0.002078385848408636
aF0.001731846914237754
aF0.003810723007867893
aF0.001731846914237754
aF0.002078385848408636
aF0.002078385848408636
aI0
aF0.001731846914237754
aI0
aF0.0024240423704787245
aF0.003117596100355023
aF0.001731846914237754
aF0.0024244835765291216
aF0.002424939165849859
aF0.002424939165849859
aI0
aF0.0034646252797474082
aF0.002424939165849859
aF0.011172997881799158
aF0.002078385848408636
aF0.001731846914237754
aF0.003811191162552913
aF0.002078385848408636
aF0.001731846914237754
aF0.00033979807359079447
aF0.002078385848408636
aF0.002078385848408636
aI0
aF0.001731846914237754
aF0.0012081922211568529
aF0.007275391028456931
aF0.001385287707853075
aF0.001385287707853075
aF0.0006921954562409703
aF0.0010382931843614554
aF0.0010382931843614554
aF0.0010387343904118527
aF0.004157811466549702
aF0.009699939060272667
aF0.002078409347465159
aF0.0017309298466528231
aF0.00173137105270322
aF0.001385287707853075
aF0.001385287707853075
aF0.009008722276152016
aF0.006582295043078824
aF0.008663229132384574
aF0.0013843909124819408
aF0.0006921954562409703
aF0.006926976626794596
aF0.001384832118532338
aF0.001731846914237754
aF0.0
aF0.0024240220982649275
aF0.0006921954562409703
aF0.006928864282808887
aF0.00173138543597356
aF0.0024249738217506246
aF0.016579093713792584
aF0.0013843909124819406
aF0.001384832118532338
aF0.0010382931843614554
aF0.003810729684288719
aI0
aI0
aF0.0006921954562409703
aF0.0010387343904118527
aF0.004156344874453844
aF0.0006921954562409703
aF0.001731846914237754
aF0.003808854216797265
aF0.0031171437378770114
aF0.002770581304649607
aF0.002078409347465159
aF0.004983814249907221
aF0.0010387343904118527
aF0.0006921954562409703
aF0.0027710715498711095
aF0.0006921954562409703
aF0.0010387343904118527
aF0.0010387343904118527
aI0
aF0.0006921954562409703
aI0
aF0.0013843909124819406
aF0.0020779446423582395
aF0.0006921954562409703
aF0.001384832118532338
aF0.001385287707853075
aF0.001385287707853075
aI0
aF0.0024249738217506246
aF0.001385287707853075
aF0.01663380568095278
aF0.0010387343904118527
aF0.0006921954562409703
aF0.002771539704556129
aF0.0010387343904118527
aF0.0006921954562409703
aF0.0031181066183111135
aF0.0010387343904118527
aF0.0010387343904118527
aI0
aF0.0006921954562409703
aF0.001384832118532338
aF0.008575749490751058
aF0.003117114349877032
aF0.003117114349877032
aF0.0024240220982649275
aF0.0027701198263854125
aF0.0027701198263854125
aF0.0027705610324358096
aF0.004169693827046665
aF0.008661190286590474
aF0.003810235989489116
aF0.00415495194491775
aF0.0017817098365799423
aF0.0010387343904118527
aF0.0031171143498770317
aF0.010740548918175972
aF0.00831412168510278
aF0.010395055774408532
aF0.0024240220982649275
aF0.0013003584622941265
aF0.007535139632847751
aF0.002162873888542141
aF0.0034636735562617116
aF0.0024240220982649275
aF0.0
aF0.0024240220982649275
aF0.007410705903149482
aF0.0034632120779975175
aF0.004156800463774582
aF0.017667837651631838
aF0.003808413010746868
aF0.002162873888542141
aF0.0020779243701444425
aF0.0031599621043459725
aI0
aI0
aF0.0024240220982649275
aF0.0027705610324358096
aF0.0028214103337478318
aF0.0024240220982649275
aF0.003463673556261711
aF0.0055406808588212226
aF0.0048489703799009685
aF0.004502407946673564
aF0.003810235989489116
aF0.0062841380554673025
aF0.0027705610324358096
aF0.0024240220982649275
aF0.0045028981918950675
aF0.0024240220982649275
aF0.0027705610324358096
aF0.0027705610324358096
aI0
aF0.0024240220982649275
aI0
aF0.003116217554505898
aF0.0038097712843821966
aF0.0024240220982649275
aF0.001992995124585494
aF0.003117114349877032
aF0.0031171143498770317
aI0
aF0.004156800463774582
aF0.0031171143498770317
aF0.018365632322976732
aF0.0027705610324358096
aF0.0024240220982649275
aF0.004503366346580086
aF0.0027705610324358096
aF0.0024240220982649275
aF0.00484993326033507
aF0.0027705610324358096
aF0.0027705610324358096
aI0
aF0.0024240220982649275
aF0.0038088542167972654
aF0.007967586484697902
aF0.001385287707853075
aF0.001385287707853075
aF0.0006921954562409703
aF0.00034609772812048515
aF0.00034609772812048515
aF0.0010387343904118527
aF0.004157811466549702
aF0.009699939060272667
aF0.002078409347465159
aF0.0024231253028937933
aF0.00173137105270322
aF0.001385287707853075
aF0.001385287707853075
aF0.009008722276152016
aF0.006582295043078824
aF0.008663229132384574
aF0.0013843909124819406
aF0.0006921954562409703
aF0.006926976626794596
aF0.001384832118532338
aF0.00048186189255439377
aF0.0006921954562409703
aF0.0024240220982649275
aF0.0
aF0.006928864282808887
aF0.00173138543597356
aF0.0024249738217506246
aF0.018013459517592836
aF0.0020765863687229108
aF0.001384832118532338
aF0.0010382931843614554
aF0.003810729684288719
aI0
aI0
aF0.0006921954562409703
aF0.0010387343904118527
aF0.004156344874453844
aF0.0006921954562409703
aF0.001731846914237754
aF0.003116658760556295
aF0.0031171437378770114
aF0.002770581304649607
aF0.002078409347465159
aF0.0062337992715905816
aF0.0010387343904118527
aF0.0006921954562409703
aF0.0027710715498711095
aF0.0006921954562409703
aF0.0010387343904118527
aF0.0010387343904118527
aI0
aF0.0006921954562409703
aI0
aF0.0013843909124819406
aF0.0020779446423582395
aF0.0006921954562409703
aF0.0013848321185323377
aF0.001385287707853075
aF0.001385287707853075
aI0
aF0.0024249738217506246
aF0.001385287707853075
aF0.014336296087080033
aF0.0010387343904118527
aF0.0006921954562409703
aF0.002771539704556129
aF0.0010387343904118527
aF0.0006921954562409703
aF0.00154941788122611
aF0.0010387343904118527
aF0.0010387343904118527
aI0
aF0.0006921954562409703
aF0.001123242702759154
aF0.014204255311265818
aF0.003870069254192302
aF0.003870069254192302
aF0.006236668826567916
aF0.006582766554688401
aF0.006582766554688401
aF0.007275403216979769
aF0.006046257437134965
aF0.013732837993143069
aF0.008315078174033074
aF0.006205943715808631
aF0.007968039879271136
aF0.007621956534420991
aF0.007621956534420991
aF0.014121727466749131
aF0.01091139412561843
aF0.014899897958952493
aF0.006371074717366496
aF0.006928864282808887
aF0.006369542817698385
aF0.003951359176074907
aF0.00796851574080567
aF0.006928864282808887
aF0.007410705903149482
aF0.006928864282808887
aF0.0
aF0.004216166982312789
aF0.00866164264831854
aF0.01746413291318792
aF0.007621059739049856
aF0.003951359176074907
aF0.0042633220318339035
aF0.010047398510856634
aI0
aI0
aF0.006928864282808886
aF0.007275403216979768
aF0.008631358743609652
aF0.006928864282808887
aF0.00796851574080567
aF0.009091738171351027
aF0.009353812564444928
aF0.00586032184922268
aF0.008315078174033074
aF0.01001661768450542
aF0.007275403216979768
aF0.006928864282808886
aF0.009007740376439026
aF0.006928864282808886
aF0.007275403216979768
aF0.007275403216979768
aI0
aF0.006928864282808887
aI0
aF0.004905619909623595
aF0.008314613468926157
aF0.006928864282808887
aF0.007621500945100254
aF0.007621956534420991
aF0.007621956534420991
aI0
aF0.00866164264831854
aF0.007621956534420991
aF0.02287047450752069
aF0.0063216183449656144
aF0.006928864282808887
aF0.009008208531124044
aF0.007275403216979769
aF0.006928864282808887
aF0.009354775444879029
aF0.007275403216979769
aF0.007275403216979769
aI0
aF0.006928864282808887
aF0.00735991152932707
aF0.009006776464430492
aF0.00034609772812048515
aF0.00034609772812048515
aF0.00173138543597356
aF0.0020774831640940454
aF0.0020774831640940454
aF0.002077924370144442
aF0.005197001446282291
aF0.010739129040005256
aF0.0031175993271977485
aF0.0016464561904146117
aF0.0027705610324358096
aF0.002424477687585665
aF0.002424477687585665
aF0.010047912255884606
aF0.007621485022811413
aF0.009702419112117163
aF0.0024235808922145304
aF0.00173138543597356
aF0.004628805320816805
aF0.0013003584622941267
aF0.002771036893970344
aF0.00173138543597356
aF0.0034632120779975175
aF0.00173138543597356
aF0.004216166982312789
aF0.0
aF0.003464163801483214
aF0.016494620057554372
aF0.003115776348455501
aF0.0013003584622941267
aF0.0009538195281232442
aF0.004849919664021309
aI0
aI0
aF0.00173138543597356
aF0.002077924370144442
aF0.0040718712182156325
aF0.00173138543597356
aF0.0015210518722869834
aF0.0037243805605590543
aF0.0032025488455954473
aF0.0026861076484113954
aF0.0031175993271977485
aF0.005195540743338216
aF0.002077924370144442
aF0.00173138543597356
aF0.003810261529603699
aF0.00173138543597356
aF0.002077924370144442
aF0.002077924370144442
aI0
aF0.00173138543597356
aI0
aF0.0012999172562437294
aF0.002424939165849859
aF0.00173138543597356
aF0.002424022098264928
aF0.002424477687585665
aF0.002424477687585665
aI0
aF0.003464163801483214
aF0.002424477687585665
aF0.017672995660685364
aF0.002077924370144442
aF0.00173138543597356
aF0.003810729684288719
aF0.002077924370144442
aF0.00173138543597356
aF0.004157296598043703
aF0.002077924370144442
aF0.002077924370144442
aI0
aF0.00173138543597356
aF0.002424022098264928
aF0.005911935818690822
aF0.003118066073362729
aF0.003118066073362729
aF0.0024249738217506246
aF0.0027710715498711095
aF0.0027710715498711095
aF0.0027715127559215067
aF0.005890589832059355
aF0.011432717425782321
aF0.0038111877129748126
aF0.004155903668403447
aF0.0034641494182128746
aF0.003118066073362729
aF0.003118066073362729
aF0.010741500641661671
aF0.008315073408588477
aF0.010396007497894228
aF0.0031171692779915945
aF0.0024249738217506246
aF0.007225389188504002
aF0.003117610484041992
aF0.0034646252797474082
aF0.0024249738217506246
aF0.004156800463774582
aF0.0024249738217506246
aF0.00866164264831854
aF0.003464163801483214
aF0.0
aF0.019746237883102487
aF0.0038093647342325654
aF0.003117610484041992
aF0.0027710715498711095
aF0.005543508049798373
aI0
aI0
aF0.0024249738217506246
aF0.0027715127559215067
aF0.005889123239963498
aF0.0024249738217506246
aF0.0034646252797474082
aF0.005541632582306919
aF0.004849922103386666
aF0.004503359670159262
aF0.0038111877129748126
aF0.007966577637100236
aF0.0027715127559215067
aF0.0024249738217506246
aF0.004503849915380763
aF0.0024249738217506246
aF0.0027715127559215067
aF0.0027715127559215067
aI0
aF0.0024249738217506246
aI0
aF0.0031171692779915945
aF0.003810723007867893
aF0.0024249738217506246
aF0.0031176104840419916
aF0.003118066073362729
aF0.003118066073362729
aI0
aF0.004157752187260278
aF0.003118066073362729
aF0.01836658404646243
aF0.0027715127559215067
aF0.0009906080179503769
aF0.004504318070065783
aF0.0027715127559215067
aF0.0024249738217506246
aF0.004850884983820768
aF0.0027715127559215067
aF0.0005232481437645478
aI0
aF0.0009906080179503769
aF0.003809805940282962
aF0.019155286850351422
aF0.017582888133234137
aF0.017582888133234137
aF0.016579093713792584
aF0.01692519144191307
aF0.01692519144191307
aF0.016267121742039082
aF0.01868958215827162
aF0.01649499240649378
aF0.018049021976432787
aF0.012656219786879312
aF0.017145065370026778
aF0.017582888133234137
aF0.018706551769204938
aF0.01635964242933815
aF0.01450659612780543
aF0.025984493193736434
aF0.015709023213194444
aF0.017321264061351864
aF0.01461409021888323
aF0.016628627399060496
aF0.019053110975589618
aF0.016579093713792584
aF0.017667837651631838
aF0.018013459517592836
aF0.01746413291318792
aF0.016494620057554372
aF0.019746237883102487
aF0.0
aF0.014451670314489325
aF0.016628627399060496
aF0.016713576917458194
aF0.019053613786175403
aI0
aI0
aF0.018013459517592836
aF0.016267121742039082
aF0.019831628607550583
aF0.01688979588162203
aF0.015689163263595655
aF0.017143237124008694
aF0.018190143187071916
aF0.015329059651271565
aF0.017306796699092387
aF0.01136425524289583
aF0.01835999845176372
aF0.018013459517592836
aF0.02009233561122297
aF0.018013459517592836
aF0.01835999845176372
aF0.018359998451763716
aI0
aF0.0166628080852086
aI0
aF0.01688979588162203
aF0.015575740499568155
aF0.01688979588162203
aF0.01706011585162908
aF0.018706551769204938
aF0.018706551769204938
aI0
aF0.019746237883102487
aF0.018706551769204938
aF0.03395506974230464
aF0.01611173383960676
aF0.018013459517592836
aF0.020092803765907996
aF0.018359998451763712
aF0.016579093713792584
aF0.020439370679662977
aF0.016111733839606755
aF0.018359998451763712
aI0
aF0.018013459517592836
aF0.015405896392553877
aF0.0064615548573558074
aF0.0027696786203350154
aF0.0027696786203350154
aF0.0013843909124819406
aF0.0017304886406024258
aF0.0017304886406024258
aF0.0024231253028937933
aF0.005542202379031642
aF0.009006881464769655
aF0.0034628002599470997
aF0.0024231253028937933
aF0.003115761965185161
aF0.0027696786203350154
aF0.0027696786203350154
aF0.007763417925321061
aF0.00576291606186325
aF0.010047620044866515
aF0.0027687818249638816
aF0.0020765863687229108
aF0.007619172083035566
aF0.0027692230310142783
aF0.003116237826719695
aF0.0013843909124819406
aF0.003808413010746868
aF0.0020765863687229108
aF0.007621059739049856
aF0.003115776348455501
aF0.0038093647342325654
aF0.014451670314489325
aF0.0
aF0.0027692230310142783
aF0.002422684096843396
aF0.004071456960799858
aI0
aI0
aF0.0020765863687229108
aF0.0024231253028937933
aF0.004106369983135538
aF0.0013843909124819406
aF0.003116237826719695
aF0.005193245129279206
aF0.004501534650358952
aF0.004154972217131547
aF0.0021121488275628627
aF0.005676009706148191
aF0.0024231253028937933
aF0.0020765863687229108
aF0.00415546246235305
aF0.0020765863687229108
aF0.0024231253028937933
aF0.0024231253028937933
aI0
aF0.0020765863687229108
aI0
aF0.0027687818249638816
aF0.0034623355548401803
aF0.0013843909124819406
aF0.0027692230310142783
aF0.0027696786203350154
aF0.0027696786203350154
aI0
aF0.0038093647342325654
aF0.0027696786203350154
aF0.018018196593434715
aF0.0014693404308796392
aF0.0020765863687229108
aF0.0041559306170380695
aF0.0024231253028937933
aF0.0020765863687229108
aF0.004502497530793054
aF0.0024231253028937933
aF0.0024231253028937933
aI0
aF0.0020765863687229108
aF0.0027692230310142783
aF0.00866022314698927
aF0.0009542607341736413
aF0.0009542607341736413
aF0.001384832118532338
aF0.001730929846652823
aF0.001730929846652823
aF0.00173137105270322
aF0.002060954759211124
aF0.00943879085054988
aF0.0027710460097565264
aF0.0024235665089441904
aF0.0024240077149945876
aF0.002077924370144442
aF0.002077924370144442
aF0.009701358938443384
aF0.00727493170537019
aF0.009355865794675941
aF0.0011232427027591542
aF0.001384832118532338
aF0.006268961856701726
aF0.0
aF0.0024244835765291216
aF0.001384832118532338
aF0.002162873888542141
aF0.001384832118532338
aF0.003951359176074907
aF0.0013003584622941267
aF0.003117610484041992
aF0.016628627399060496
aF0.0027692230310142783
aF0.0
aF8.494951839769862e-05
aF0.004503366346580086
aI0
aI0
aF0.001384832118532338
aF0.00173137105270322
aF0.004156786080504241
aF0.001384832118532338
aF0.0024244835765291216
aF0.004501490879088633
aF0.0038097804001683785
aF0.0027710225107000037
aF0.0027710460097565264
aF0.006234240477640978
aF0.00173137105270322
aF0.001384832118532338
aF0.0034637082121624775
aF0.001384832118532338
aF0.00173137105270322
aF0.00173137105270322
aI0
aF0.001384832118532338
aI0
aF0.001384832118532338
aF0.002770581304649607
aF0.001384832118532338
aF0.002077468780823705
aF0.002077924370144442
aF0.002077924370144442
aI0
aF0.003117610484041992
aF0.002077924370144442
aF0.017326442343244146
aF0.00173137105270322
aF0.001384832118532338
aF0.003464176366847496
aF0.00173137105270322
aF0.001384832118532338
aF0.003810743280602481
aF0.00173137105270322
aF0.00173137105270322
aI0
aF0.001384832118532338
aF0.0027696642370646754
aF0.008313684212818388
aF0.0006077218000027591
aF0.0006077218000027591
aF0.0010382931843614554
aF0.0013843909124819408
aF0.0013843909124819408
aF0.001384832118532338
aF0.002783964913143193
aF0.009353841332152182
aF0.002424507075585644
aF0.0020770275747733083
aF0.0020774687808237055
aF0.00173138543597356
aF0.00173138543597356
aF0.009354820004272502
aF0.006928392771199309
aF0.009009326860505058
aF0.0010382931843614554
aF0.0010382931843614554
aF0.005922422922530844
aF8.494951839769862e-05
aF0.0020779446423582395
aF0.0010382931843614554
aF0.0020779243701444425
aF0.0010382931843614554
aF0.0042633220318339035
aF0.0009538195281232442
aF0.0027710715498711095
aF0.016713576917458194
aF0.002422684096843396
aF8.494951839769862e-05
aF0.0
aF0.004156827412409204
aI0
aI0
aF0.0010382931843614554
aF0.001384832118532338
aF0.003810247146333359
aF0.0010382931843614554
aF0.0020779446423582395
aF0.00415495194491775
aF0.0034632414659974964
aF0.0024244835765291216
aF0.002424507075585644
aF0.005887701543470097
aF0.0013848321185323377
aF0.0010382931843614554
aF0.0031171692779915945
aF0.0010382931843614554
aF0.0013848321185323377
aF0.001384832118532338
aI0
aF0.0010382931843614554
aI0
aF0.0010382931843614554
aF0.0024240423704787245
aF0.0010382931843614554
aF0.0017309298466528231
aF0.00173138543597356
aF0.00173138543597356
aI0
aF0.0027710715498711095
aF0.00173138543597356
aF0.016979903409073262
aF0.001384832118532338
aF0.0010382931843614554
aF0.0031176374326766145
aF0.001384832118532338
aF0.0010382931843614554
aF0.0034642043464315985
aF0.001384832118532338
aF0.001384832118532338
aI0
aF0.0010382931843614554
aF0.0024231253028937933
aF0.008032903149102676
aF0.004503821935900824
aF0.004503821935900824
aF0.003810729684288719
aF0.004156827412409204
aF0.004156827412409204
aF0.004157268618459601
aF0.007276345694597451
aF0.01113698543017318
aF0.005196943575512907
aF0.005541659530941542
aF0.004849905280750968
aF0.004503821935900824
aF0.004503821935900824
aF0.00907403894055679
aF0.007311726870784871
aF0.011781763360432322
aF0.00450292514052969
aF0.003810729684288719
aF0.010045510854842345
aF0.004503366346580086
aF0.004850381142285503
aF0.003810729684288719
aF0.0031599621043459725
aF0.003810729684288719
aF0.010047398510856634
aF0.004849919664021309
aF0.005543508049798373
aF0.019053613786175403
aF0.004071456960799858
aF0.004503366346580086
aF0.004156827412409204
aF0.0
aI0
aI0
aF0.003810729684288719
aF0.004157268618459601
aF0.004892284880534889
aF0.002687066048317918
aF0.004850381142285503
aF0.006927388444845015
aF0.0062356779659247605
aF0.005889115532697355
aF0.005196943575512907
aF0.00935233349963833
aF0.004157268618459602
aF0.003810729684288719
aF0.005889605777918858
aF0.003810729684288719
aF0.004157268618459602
aF0.004157268618459601
aI0
aF0.003810729684288719
aI0
aF0.00450292514052969
aF0.005196478870405988
aF0.002687066048317918
aF0.004503366346580087
aF0.004503821935900824
aF0.004503821935900824
aI0
aF0.005543508049798373
aF0.004503821935900824
aF0.019752339909000525
aF0.004157268618459601
aF0.003810729684288719
aF0.005890073932603879
aF0.004157268618459601
aF0.003810729684288719
aF0.006236640846358862
aF0.004157268618459602
aF0.004157268618459601
aI0
aF0.003810729684288719
aF0.005195561802821057
aI0
aI0
aI0
aI0
aI0
aI0
aI0
aI0
aI0
aI0
aI0
aI0
aI0
aI0
aI0
aI0
aI0
aI0
aI0
aI0
aI0
aI0
aI0
aI0
aI0
aI0
aI0
aI0
aI0
aI0
aI0
aI0
aI0
aI0
aI0
aI0
aI0
aI0
aI0
aI0
aI0
aI0
aI0
aI0
aI0
aI0
aI0
aI0
aI0
aI0
aI0
aI0
aI0
aI0
aI0
aI0
aI0
aI0
aI0
aI0
aI0
aI0
aI0
aI0
aI0
aI0
aI0
aI0
aI0
aI0
aI0
aI0
aI0
aI0
aI0
aI0
aI0
aI0
aI0
aI0
aI0
aI0
aI0
aI0
aI0
aI0
aI0
aI0
aI0
aI0
aI0
aI0
aI0
aI0
aI0
aI0
aI0
aI0
aI0
aI0
aI0
aI0
aI0
aI0
aI0
aI0
aI0
aI0
aI0
aI0
aI0
aI0
aI0
aI0
aI0
aI0
aI0
aI0
aI0
aI0
aI0
aI0
aI0
aI0
aI0
aI0
aI0
aI0
aI0
aI0
aI0
aI0
aI0
aI0
aI0
aI0
aI0
aI0
aI0
aI0
aI0
aI0
aI0
aI0
aI0
aI0
aI0
aI0
aI0
aI0
aF0.007967586484697902
aF0.001385287707853075
aF0.001385287707853075
aF0.0006921954562409703
aF0.0010382931843614554
aF0.0010382931843614554
aF0.0010387343904118527
aF0.004157811466549702
aF0.009699939060272667
aF0.002078409347465159
aF0.0024231253028937937
aF0.00173137105270322
aF0.001385287707853075
aF0.001385287707853075
aF0.009008722276152016
aF0.006582295043078824
aF0.008663229132384574
aF0.0013843909124819408
aF0.0006921954562409703
aF0.006926976626794596
aF0.001384832118532338
aF0.001731846914237754
aF0.0006921954562409703
aF0.0024240220982649275
aF0.0006921954562409703
aF0.006928864282808886
aF0.00173138543597356
aF0.0024249738217506246
aF0.018013459517592836
aF0.0020765863687229108
aF0.001384832118532338
aF0.0010382931843614554
aF0.003810729684288719
aI0
aI0
aF0.0
aF0.0010387343904118527
aF0.004156344874453844
aF0.0006921954562409703
aF0.001731846914237754
aF0.003116658760556295
aF0.0031171437378770114
aF0.002770581304649607
aF0.002078409347465159
aF0.0062337992715905816
aF8.494951839769862e-05
aF0.0
aF0.002078876093630139
aF0.0
aF8.494951839769862e-05
aF0.0010387343904118527
aI0
aF0.0006921954562409703
aI0
aF0.0013843909124819408
aF0.0020779446423582395
aF0.0006921954562409703
aF0.001384832118532338
aF0.001385287707853075
aF0.001385287707853075
aI0
aF0.0024249738217506246
aF0.001385287707853075
aF0.014913861399425783
aF0.0010387343904118527
aF0.0006921954562409703
aF0.002771539704556129
aF0.0010387343904118527
aF0.0006921954562409703
aF0.0031181066183111135
aF0.0010387343904118527
aF0.0010387343904118527
aI0
aF0.0006921954562409703
aF0.0020770275747733083
aF0.008314125418868785
aF0.0017318266420239571
aF0.0017318266420239571
aF0.0010387343904118527
aF0.0013848321185323377
aF0.0013848321185323377
aF0.0013852733245827348
aF0.004504350400720584
aF0.008661204669860815
aF0.002424948281636041
aF0.0013843909124819406
aF0.002077909986874102
aF0.0017318266420239571
aF0.0017318266420239571
aF0.009355261210322898
aF0.006928833977249705
aF0.009009768066555457
aF0.0007771449746386689
aF0.0010387343904118527
aF0.0058882422363827425
aF0.00173137105270322
aF0.002078385848408636
aF0.0010387343904118527
aF0.0027705610324358096
aF0.0010387343904118527
aF0.007275403216979768
aF0.002077924370144442
aF0.0027715127559215067
aF0.016267121742039082
aF0.0024231253028937933
aF0.00173137105270322
aF0.001384832118532338
aF0.004157268618459601
aI0
aI0
aF0.0010387343904118527
aF0.0
aF0.004502883808624727
aF0.0010387343904118527
aF0.002078385848408636
aF0.004155393150968148
aF0.0034636826720478935
aF0.0031171202388204887
aF0.002424948281636041
aF0.006580338205761463
aF0.0013852733245827348
aF0.0010387343904118527
aF0.003117610484041992
aF0.0010387343904118527
aF0.0013852733245827348
aF0.0013852733245827348
aI0
aF8.494951839769862e-05
aI0
aF0.001730929846652823
aF0.0024244835765291216
aF0.0010387343904118527
aF0.00173137105270322
aF0.0017318266420239571
aF0.0017318266420239571
aI0
aF0.0027715127559215067
aF0.0017318266420239571
aF0.016980344615123658
aF0.0013852733245827348
aF0.0010387343904118527
aF0.0031180786387270116
aF0.0013852733245827348
aF0.0010387343904118527
aF0.0034646455524819956
aF0.0013852733245827348
aF0.0013852733245827348
aI0
aF0.0010387343904118527
aF0.0024235665089441904
aF0.010477951030896621
aF0.0037257734900951476
aF0.0037257734900951476
aF0.004156344874453844
aF0.00450244260257433
aF0.00450244260257433
aF0.004502883808624727
aF0.007621960884762575
aF0.011482600620338306
aF0.005542558765678033
aF0.005195079264865697
aF0.003810247146333359
aF0.003167949267918714
aF0.004849437126065948
aF0.012472871694364888
aF0.010046444461291697
aF0.012127378550597447
aF0.0048485403306948146
aF0.0032025600024396905
aF0.008086689740609079
aF0.004156786080504241
aF0.005195996332450627
aF0.004156344874453844
aF0.0028214103337478318
aF0.004156344874453844
aF0.008631358743609652
aF0.0040718712182156325
aF0.005889123239963498
aF0.019831628607550583
aF0.004106369983135538
aF0.004156786080504241
aF0.003810247146333359
aF0.004892284880534889
aI0
aI0
aF0.004156344874453844
aF0.004502883808624727
aF0.0
aF0.004156344874453844
aF0.005195996332450627
aF0.00727300363501014
aF0.006581293156089886
aF0.005542535266621511
aF0.005542558765678033
aF0.00762047990897975
aF0.004502883808624726
aF0.004156344874453844
aF0.006235220968083984
aF0.004156344874453844
aF0.004502883808624726
aF0.004502883808624727
aI0
aF0.004156344874453844
aI0
aF0.004156344874453844
aF0.005542094060571113
aF0.004156344874453844
aF0.0038951966647310576
aF0.004849437126065949
aF0.004849437126065948
aI0
aF0.005889123239963498
aF0.004849437126065948
aF0.02009795509916565
aF0.004502883808624727
aF0.004156344874453844
aF0.006235689122769002
aF0.004502883808624727
aF0.004156344874453844
aF0.006582256036523987
aF0.004502883808624727
aF0.004502883808624727
aI0
aF0.004156344874453844
aF0.005541176992986183
aF0.006461554857355807
aF0.001385287707853075
aF0.001385287707853075
aF0.0006921954562409703
aF0.0010382931843614554
aF0.0010382931843614554
aF0.0010387343904118527
aF0.004157811466549702
aF0.008746154188258514
aF0.002078409347465159
aF0.0024231253028937937
aF0.00173137105270322
aF0.001385287707853075
aF0.001385287707853075
aF0.007502690648809921
aF0.005332310021395463
aF0.008663229132384574
aF0.0013843909124819408
aF0.0006921954562409703
aF0.006926976626794596
aF0.001384832118532338
aF0.001731846914237754
aF0.0006921954562409703
aF0.0024240220982649275
aF0.0006921954562409703
aF0.006928864282808887
aF0.00173138543597356
aF0.0024249738217506246
aF0.01688979588162203
aF0.0013843909124819406
aF0.001384832118532338
aF0.0010382931843614554
aF0.002687066048317918
aI0
aI0
aF0.0006921954562409703
aF0.0010387343904118527
aF0.004156344874453844
aF0.0
aF0.001731846914237754
aF0.003808854216797265
aF0.0031171437378770114
aF0.002770581304649607
aF0.002078409347465159
aF0.0062337992715905816
aF0.0010387343904118527
aF0.0006921954562409703
aF0.0027710715498711095
aF0.0006921954562409703
aF0.0010387343904118527
aF0.0010387343904118527
aI0
aF0.0006921954562409703
aI0
aF0.0013843909124819406
aF0.0020779446423582395
aF0.0
aF0.001384832118532338
aF0.001385287707853075
aF0.001385287707853075
aI0
aF0.0024249738217506246
aF0.001385287707853075
aF0.01663380568095278
aF0.0010387343904118527
aF0.0006921954562409703
aF0.002771539704556129
aF0.0010387343904118527
aF0.0006921954562409703
aF0.0031181066183111135
aF0.0010387343904118527
aF0.0010387343904118527
aI0
aF0.0006921954562409703
aF0.0020770275747733083
aF0.009007237942694686
aF0.002424939165849859
aF0.002424939165849859
aF0.001731846914237754
aF0.0020779446423582395
aF0.0020779446423582395
aF0.002078385848408636
aF0.005197462924546485
aF0.010739590518269452
aF0.0031180608054619426
aF0.0022127917392072167
aF0.0027710225107000037
aF0.002424939165849859
aF0.002424939165849859
aF0.010048373734148802
aF0.007621946501075607
aF0.009702880590381359
aF0.0024240423704787245
aF0.001731846914237754
aF0.006716643063108019
aF0.0024244835765291216
aF0.002771498372234538
aF0.001731846914237754
aF0.003463673556261711
aF0.001731846914237754
aF0.00796851574080567
aF0.0015210518722869834
aF0.0034646252797474082
aF0.015689163263595655
aF0.003116237826719695
aF0.0024244835765291216
aF0.0020779446423582395
aF0.004850381142285503
aI0
aI0
aF0.001731846914237754
aF0.002078385848408636
aF0.005195996332450627
aF0.001731846914237754
aF0.0
aF0.0024594032744523486
aF0.002248308384260556
aF0.0038102327626463907
aF0.0031180608054619426
aF0.005364963917974126
aF0.002078385848408636
aF0.001731846914237754
aF0.003810723007867893
aF0.001731846914237754
aF0.002078385848408636
aF0.002078385848408636
aI0
aF0.001731846914237754
aI0
aF0.0024240423704787245
aF0.0018676110786716629
aF0.001731846914237754
aF0.002424483576529122
aF0.002424939165849859
aF0.002424939165849859
aI0
aF0.0034646252797474082
aF0.002424939165849859
aF0.01767345713894956
aF0.002078385848408636
aF0.001731846914237754
aF0.003811191162552913
aF0.002078385848408636
aF0.001731846914237754
aF0.004157758076307897
aF0.002078385848408636
aF0.002078385848408636
aI0
aF0.001731846914237754
aF0.0018666940110867317
aF0.011084245245254197
aF0.00450194646840937
aF0.00450194646840937
aF0.003808854216797265
aF0.00346275648867678
aF0.00346275648867678
aF0.004155393150968148
aF0.007274470227105997
aF0.012124402364587991
aF0.005195068108021454
aF0.004416120427479287
aF0.0048480298132595155
aF0.00450194646840937
aF0.00450194646840937
aF0.012125381036708311
aF0.009006758347394148
aF0.011779887892940868
aF0.004501049673038235
aF0.003808854216797265
aF0.008227776295139119
aF0.004501490879088633
aF0.003598520653110689
aF0.003808854216797265
aF0.0055406808588212226
aF0.003116658760556295
aF0.009091738171351027
aF0.0037243805605590543
aF0.005541632582306919
aF0.017143237124008694
aF0.005193245129279206
aF0.004501490879088633
aF0.00415495194491775
aF0.006927388444845015
aI0
aI0
aF0.003116658760556295
aF0.004155393150968148
aF0.00727300363501014
aF0.003808854216797265
aF0.0024594032744523486
aF0.0
aF0.0024594379305614388
aF0.004933455193191748
aF0.005195068108021454
aF0.006715185301985487
aF0.0032016082789539935
aF0.003116658760556295
aF0.0029472702420294756
aF0.003116658760556295
aF0.0032016082789539935
aF0.004155393150968147
aI0
aF0.003808854216797265
aI0
aF0.0038088542167972654
aF0.004070939766943733
aF0.003808854216797265
aF0.004501490879088633
aF0.00450194646840937
aF0.00450194646840937
aI0
aF0.005541632582306919
aF0.00450194646840937
aF0.01573301056610933
aF0.004155393150968147
aF0.003808854216797265
aF0.0035056042431457204
aF0.004155393150968148
aF0.003808854216797265
aF0.004666076641782405
aF0.004155393150968148
aF0.004155393150968148
aI0
aF0.003808854216797265
aF0.0024240423711036777
aF0.010392534766333943
aF0.003810235989489116
aF0.003810235989489116
aF0.0031171437378770114
aF0.0034632414659974964
aF0.0034632414659974964
aF0.0034636826720478935
aF0.006582759748185743
aF0.012124887341908709
aF0.0045033576291012
aF0.0038942887125156807
aF0.0041563193343392615
aF0.003810235989489116
aF0.003810235989489116
aF0.011433670557788059
aF0.009007243324714864
aF0.011088177414020616
aF0.003809339194117982
aF0.0031171437378770114
aF0.008398140036416483
aF0.0038097804001683785
aF0.004156795195873795
aF0.0031171437378770114
aF0.0048489703799009685
aF0.0031171437378770114
aF0.009353812564444928
aF0.0032025488455954473
aF0.004849922103386666
aF0.018190143187071916
aF0.004501534650358952
aF0.0038097804001683785
aF0.0034632414659974964
aF0.0062356779659247605
aI0
aI0
aF0.0031171437378770114
aF0.0034636826720478935
aF0.006581293156089886
aF0.0031171437378770114
aF0.002248308384260556
aF0.0024594379305614388
aF0.0
aF0.005195529586285648
aF0.0045033576291012
aF0.005922822796259651
aF0.003463682672047894
aF0.0031171437378770114
aF0.005196019831507151
aF0.0031171437378770114
aF0.003463682672047894
aF0.0034636826720478935
aI0
aF0.0031171437378770114
aI0
aF0.003809339194117982
aF0.0035491080519801264
aF0.0031171437378770114
aF0.003809780400168379
aF0.0026865723535183152
aF0.003810235989489116
aI0
aF0.004849922103386666
aF0.003810235989489116
aF0.01905875396258882
aF0.0034636826720478935
aF0.0031171437378770114
aF0.0011224578778223707
aF0.0034636826720478935
aF0.0031171437378770114
aF0.0055430548999471545
aF0.003463682672047894
aF0.0034636826720478935
aI0
aF0.0031171437378770114
aF0.0035481909843951952
aF0.010045972333106539
aF0.00234000992029091
aF0.00234000992029091
aF0.002770581304649607
aF0.0031166790327700916
aF0.0031166790327700916
aF0.0031171202388204887
aF0.006236197314958338
aF0.010824540036667149
aF0.004156795195873796
aF0.0038093156950614595
aF0.0038097569011118567
aF0.003463673556261711
aF0.003463673556261711
aF0.006199059490324739
aF0.003358673163490653
aF0.01074161498079321
aF0.003462776760890577
aF0.002770581304649607
aF0.006700926170804841
aF0.0027710225107000037
aF0.0038102327626463907
aF0.002770581304649607
aF0.004502407946673564
aF0.002770581304649607
aF0.00586032184922268
aF0.0026861076484113954
aF0.004503359670159262
aF0.015329059651271565
aF0.004154972217131547
aF0.0027710225107000037
aF0.0024244835765291216
aF0.005889115532697355
aI0
aI0
aF0.002770581304649607
aF0.0031171202388204887
aF0.005542535266621511
aF0.002770581304649607
aF0.0038102327626463907
aF0.004933455193191748
aF0.005195529586285648
aF0.0
aF0.004156795195873796
aF0.007619989663758247
aF0.0031171202388204896
aF0.002770581304649607
aF0.004849457398279747
aF0.002770581304649607
aF0.0031171202388204896
aF0.0031171202388204887
aI0
aF0.002770581304649607
aI0
aF0.0018167964326354527
aF0.001384832118532338
aF0.002770581304649607
aF0.0034632179669409745
aF0.003463673556261711
aF0.003463673556261711
aI0
aF0.004503359670159262
aF0.003463673556261711
aF0.018712191529361412
aF0.0031171202388204887
aF0.002770581304649607
aF0.004849925552964766
aF0.0031171202388204887
aF0.002770581304649607
aF0.00519649246671975
aF0.0031171202388204887
aF0.0031171202388204887
aI0
aF0.002770581304649607
aF0.003201628551167791
aF0.008003148943537854
aF0.0027715015990772635
aF0.0027715015990772635
aF0.002078409347465159
aF0.002424507075585644
aF0.002424507075585644
aF0.002424948281636041
aF0.00554402535777389
aF0.008440987122027444
aF0.0034646232386893474
aF0.003809339194117982
aF0.0031175849439274085
aF0.0027715015990772635
aF0.0027715015990772635
aF0.010394936167376204
aF0.007968508934303013
aF0.010049443023608764
aF0.002770604803706129
aF0.002078409347465159
aF0.008313190518018784
aF0.0027710460097565264
aF0.0031180608054619426
aF0.002078409347465159
aF0.003810235989489116
aF0.002078409347465159
aF0.008315078174033074
aF0.0031175993271977485
aF0.0038111877129748126
aF0.017306796699092387
aF0.0021121488275628627
aF0.0027710460097565264
aF0.002424507075585644
aF0.005196943575512907
aI0
aI0
aF0.002078409347465159
aF0.002424948281636041
aF0.005542558765678033
aF0.002078409347465159
aF0.0031180608054619426
aF0.005195068108021454
aF0.0045033576291012
aF0.004156795195873796
aF0.0
aF0.00762001316281477
aF0.002424948281636041
aF0.002078409347465159
aF0.0041572854410952985
aF0.002078409347465159
aF0.002424948281636041
aF0.002424948281636041
aI0
aF0.002078409347465159
aI0
aF0.0027706048037061293
aF0.003464158533582428
aF0.002078409347465159
aF0.0027710460097565264
aF0.0027715015990772635
aF0.0027715015990772635
aI0
aF0.0038111877129748126
aF0.0027715015990772635
aF0.018020019572176967
aF0.002424948281636041
aF0.002078409347465159
aF0.004157753595780318
aF0.002424948281636041
aF0.002078409347465159
aF0.004504320509535302
aF0.002424948281636041
aF0.002424948281636041
aI0
aF0.002078409347465159
aF0.003463241465997497
aF0.011305420406349999
aF0.005803227887231885
aF0.005803227887231885
aF0.005541603815349611
aF0.005887701543470096
aF0.005887701543470096
aF0.006580338205761463
aF0.009699415281899312
aF0.008672006383239129
aF0.004529787575184624
aF0.004376568312063949
aF0.005887701543470096
aF0.00524540366505545
aF0.006926891523202686
aF0.013426662455530826
aF0.011170113986414279
aF0.014204832947734183
aF0.005676009706148191
aF0.005280014399576427
aF0.004914132383559818
aF0.006234240477640978
aF0.007273450729587365
aF0.004983814249907221
aF0.0062841380554673025
aF0.0062337992715905816
aF0.01001661768450542
aF0.005195540743338216
aF0.007966577637100236
aF0.01136425524289583
aF0.005676009706148191
aF0.006234240477640978
aF0.005887701543470097
aF0.00935233349963833
aI0
aI0
aF0.0062337992715905816
aF0.006580338205761463
aF0.00762047990897975
aF0.0062337992715905816
aF0.005364963917974126
aF0.006715185301985487
aF0.005922822796259651
aF0.007619989663758247
aF0.00762001316281477
aF0.0
aF0.006580338205761463
aF0.0062337992715905816
aF0.00831267536522072
aF0.0062337992715905816
aF0.006580338205761463
aF0.006580338205761463
aI0
aF0.0062337992715905816
aI0
aF0.0062337992715905816
aF0.006665763585693696
aF0.0062337992715905816
aF0.004064164250254554
aF0.006926891523202686
aF0.006926891523202686
aI0
aF0.007966577637100236
aF0.006926891523202686
aF0.022175409496302385
aF0.00562655333374731
aF0.0062337992715905816
aF0.006807111892563646
aF0.006580338205761463
aF0.005280014399576427
aF0.008659710433660725
aF0.005195064881178728
aF0.006580338205761463
aI0
aF0.0062337992715905816
aF0.005414861496425404
aF0.008314125418868784
aF0.0017318266420239571
aF0.0017318266420239571
aF0.0010387343904118527
aF0.0013848321185323377
aF0.0013848321185323377
aF0.0013852733245827348
aF0.004504350400720584
aF0.01004647799444355
aF0.002424948281636041
aF0.002769664237064676
aF0.0020779099868741026
aF0.0017318266420239571
aF0.0017318266420239571
aF0.0093552612103229
aF0.006928833977249705
aF0.009009768066555457
aF0.001730929846652823
aF0.0010387343904118527
aF0.0072735155609654776
aF0.00173137105270322
aF0.002078385848408636
aF0.0010387343904118527
aF0.0027705610324358096
aF0.0010387343904118527
aF0.007275403216979768
aF0.002077924370144442
aF0.0027715127559215067
aF0.01835999845176372
aF0.0024231253028937933
aF0.00173137105270322
aF0.0013848321185323377
aF0.004157268618459602
aI0
aI0
aF8.494951839769862e-05
aF0.0013852733245827348
aF0.004502883808624726
aF0.0010387343904118527
aF0.002078385848408636
aF0.0032016082789539935
aF0.003463682672047894
aF0.0031171202388204896
aF0.002424948281636041
aF0.006580338205761463
aF0.0
aF8.494951839769862e-05
aF0.0021638256120278376
aF8.494951839769862e-05
aF0.0
aF0.0013852733245827348
aI0
aF0.0010387343904118527
aI0
aF0.001730929846652823
aF0.0024244835765291216
aF0.0010387343904118527
aF0.00173137105270322
aF0.0017318266420239571
aF0.0017318266420239571
aI0
aF0.0027715127559215067
aF0.0017318266420239571
aF0.014190851245493713
aF0.0013852733245827348
aF0.0010387343904118527
aF0.0031180786387270116
aF0.0013852733245827348
aF0.0010387343904118527
aF0.0034646455524819956
aF0.0013852733245827348
aF0.0013852733245827348
aI0
aF0.0010387343904118527
aF0.0024235665089441904
aF0.007967586484697902
aF0.001385287707853075
aF0.001385287707853075
aF0.0006921954562409703
aF0.0010382931843614554
aF0.0010382931843614554
aF0.0010387343904118527
aF0.004157811466549702
aF0.009699939060272667
aF0.002078409347465159
aF0.0024231253028937937
aF0.00173137105270322
aF0.001385287707853075
aF0.001385287707853075
aF0.009008722276152016
aF0.006582295043078824
aF0.008663229132384574
aF0.0013843909124819408
aF0.0006921954562409703
aF0.006926976626794596
aF0.001384832118532338
aF0.001731846914237754
aF0.0006921954562409703
aF0.0024240220982649275
aF0.0006921954562409703
aF0.006928864282808886
aF0.00173138543597356
aF0.0024249738217506246
aF0.018013459517592836
aF0.0020765863687229108
aF0.001384832118532338
aF0.0010382931843614554
aF0.003810729684288719
aI0
aI0
aF0.0
aF0.0010387343904118527
aF0.004156344874453844
aF0.0006921954562409703
aF0.001731846914237754
aF0.003116658760556295
aF0.0031171437378770114
aF0.002770581304649607
aF0.002078409347465159
aF0.0062337992715905816
aF8.494951839769862e-05
aF0.0
aF0.002078876093630139
aF0.0
aF8.494951839769862e-05
aF0.0010387343904118527
aI0
aF0.0006921954562409703
aI0
aF0.0013843909124819408
aF0.0020779446423582395
aF0.0006921954562409703
aF0.001384832118532338
aF0.001385287707853075
aF0.001385287707853075
aI0
aF0.0024249738217506246
aF0.001385287707853075
aF0.014913861399425783
aF0.0010387343904118527
aF0.0006921954562409703
aF0.002771539704556129
aF0.0010387343904118527
aF0.0006921954562409703
aF0.0031181066183111135
aF0.0010387343904118527
aF0.0010387343904118527
aI0
aF0.0006921954562409703
aF0.0020770275747733083
aF0.010046462578328043
aF0.003464163801483214
aF0.003464163801483214
aF0.0027710715498711095
aF0.0031171692779915945
aF0.0031171692779915945
aF0.003117610484041992
aF0.00623668756017984
aF0.011778815153902805
aF0.0041572854410952985
aF0.004502001396523933
aF0.0038102471463333596
aF0.003464163801483214
aF0.003464163801483214
aF0.011087598369782155
aF0.008661171136708962
aF0.010742105226014712
aF0.0034632670061120795
aF0.0027710715498711095
aF0.009005852720424735
aF0.0034637082121624775
aF0.003810723007867893
aF0.0027710715498711095
aF0.0045028981918950675
aF0.0027710715498711095
aF0.009007740376439026
aF0.003810261529603699
aF0.004503849915380763
aF0.02009233561122297
aF0.00415546246235305
aF0.0034637082121624775
aF0.0031171692779915945
aF0.005889605777918858
aI0
aI0
aF0.002078876093630139
aF0.003117610484041992
aF0.006235220968083984
aF0.0027710715498711095
aF0.003810723007867893
aF0.0029472702420294756
aF0.005196019831507151
aF0.004849457398279747
aF0.0041572854410952985
aF0.00831267536522072
aF0.0021638256120278376
aF0.002078876093630139
aF0.0
aF0.002078876093630139
aF0.0021638256120278376
aF0.003117610484041992
aI0
aF0.0027710715498711095
aI0
aF0.0034632670061120795
aF0.004156820735988378
aF0.0027710715498711095
aF0.0034637082121624775
aF0.003464163801483214
aF0.003464163801483214
aI0
aF0.004503849915380763
aF0.003464163801483214
aF0.016992737493055923
aF0.003117610484041992
aF0.0027710715498711095
aF0.004850415798186268
aF0.003117610484041992
aF0.0027710715498711095
aF0.005196982711941252
aF0.003117610484041992
aF0.003117610484041992
aI0
aF0.0027710715498711095
aF0.004155903668403448
aF0.007967586484697902
aF0.001385287707853075
aF0.001385287707853075
aF0.0006921954562409703
aF0.0010382931843614554
aF0.0010382931843614554
aF0.0010387343904118527
aF0.004157811466549702
aF0.009699939060272667
aF0.002078409347465159
aF0.0024231253028937937
aF0.00173137105270322
aF0.001385287707853075
aF0.001385287707853075
aF0.009008722276152016
aF0.006582295043078824
aF0.008663229132384574
aF0.0013843909124819408
aF0.0006921954562409703
aF0.006926976626794596
aF0.001384832118532338
aF0.001731846914237754
aF0.0006921954562409703
aF0.0024240220982649275
aF0.0006921954562409703
aF0.006928864282808886
aF0.00173138543597356
aF0.0024249738217506246
aF0.018013459517592836
aF0.0020765863687229108
aF0.001384832118532338
aF0.0010382931843614554
aF0.003810729684288719
aI0
aI0
aF0.0
aF0.0010387343904118527
aF0.004156344874453844
aF0.0006921954562409703
aF0.001731846914237754
aF0.003116658760556295
aF0.0031171437378770114
aF0.002770581304649607
aF0.002078409347465159
aF0.0062337992715905816
aF8.494951839769862e-05
aF0.0
aF0.002078876093630139
aF0.0
aF8.494951839769862e-05
aF0.0010387343904118527
aI0
aF0.0006921954562409703
aI0
aF0.0013843909124819408
aF0.0020779446423582395
aF0.0006921954562409703
aF0.001384832118532338
aF0.001385287707853075
aF0.001385287707853075
aI0
aF0.0024249738217506246
aF0.001385287707853075
aF0.014913861399425783
aF0.0010387343904118527
aF0.0006921954562409703
aF0.002771539704556129
aF0.0010387343904118527
aF0.0006921954562409703
aF0.0031181066183111135
aF0.0010387343904118527
aF0.0010387343904118527
aI0
aF0.0006921954562409703
aF0.0020770275747733083
aF0.008314125418868784
aF0.0017318266420239571
aF0.0017318266420239571
aF0.0010387343904118527
aF0.0013848321185323377
aF0.0013848321185323377
aF0.0013852733245827348
aF0.004504350400720584
aF0.01004647799444355
aF0.002424948281636041
aF0.002769664237064676
aF0.0020779099868741026
aF0.0017318266420239571
aF0.0017318266420239571
aF0.0093552612103229
aF0.006928833977249705
aF0.009009768066555457
aF0.001730929846652823
aF0.0010387343904118527
aF0.0072735155609654776
aF0.00173137105270322
aF0.002078385848408636
aF0.0010387343904118527
aF0.0027705610324358096
aF0.0010387343904118527
aF0.007275403216979768
aF0.002077924370144442
aF0.0027715127559215067
aF0.01835999845176372
aF0.0024231253028937933
aF0.00173137105270322
aF0.0013848321185323377
aF0.004157268618459602
aI0
aI0
aF8.494951839769862e-05
aF0.0013852733245827348
aF0.004502883808624726
aF0.0010387343904118527
aF0.002078385848408636
aF0.0032016082789539935
aF0.003463682672047894
aF0.0031171202388204896
aF0.002424948281636041
aF0.006580338205761463
aF0.0
aF8.494951839769862e-05
aF0.0021638256120278376
aF8.494951839769862e-05
aF0.0
aF0.0013852733245827348
aI0
aF0.0010387343904118527
aI0
aF0.001730929846652823
aF0.0024244835765291216
aF0.0010387343904118527
aF0.00173137105270322
aF0.0017318266420239571
aF0.0017318266420239571
aI0
aF0.0027715127559215067
aF0.0017318266420239571
aF0.014190851245493713
aF0.0013852733245827348
aF0.0010387343904118527
aF0.0031180786387270116
aF0.0013852733245827348
aF0.0010387343904118527
aF0.0034646455524819956
aF0.0013852733245827348
aF0.0013852733245827348
aI0
aF0.0010387343904118527
aF0.0024235665089441904
aF0.008314125418868785
aF0.0017318266420239571
aF0.0017318266420239571
aF0.0010387343904118527
aF0.001384832118532338
aF0.001384832118532338
aF0.0013852733245827348
aF0.004504350400720584
aF0.01004647799444355
aF0.002424948281636041
aF0.002769664237064676
aF0.002077909986874102
aF0.0017318266420239571
aF0.0017318266420239571
aF0.009355261210322898
aF0.006928833977249705
aF0.009009768066555457
aF0.001730929846652823
aF0.0010387343904118527
aF0.0072735155609654776
aF0.00173137105270322
aF0.002078385848408636
aF0.0010387343904118527
aF0.0027705610324358096
aF0.0010387343904118527
aF0.007275403216979768
aF0.002077924370144442
aF0.0027715127559215067
aF0.018359998451763716
aF0.0024231253028937933
aF0.00173137105270322
aF0.001384832118532338
aF0.004157268618459601
aI0
aI0
aF0.0010387343904118527
aF0.0013852733245827348
aF0.004502883808624727
aF0.0010387343904118527
aF0.002078385848408636
aF0.004155393150968147
aF0.0034636826720478935
aF0.0031171202388204887
aF0.002424948281636041
aF0.006580338205761463
aF0.0013852733245827348
aF0.0010387343904118527
aF0.003117610484041992
aF0.0010387343904118527
aF0.0013852733245827348
aF0.0
aI0
aF0.0010387343904118527
aI0
aF0.001730929846652823
aF0.0024244835765291216
aF0.0010387343904118527
aF0.00173137105270322
aF0.0017318266420239571
aF0.0017318266420239571
aI0
aF0.0027715127559215067
aF0.0017318266420239571
aF0.016980344615123658
aF0.0013852733245827348
aF0.0010387343904118527
aF0.0031180786387270116
aF0.0013852733245827348
aF0.0010387343904118527
aF0.0034646455524819956
aF0.0013852733245827348
aF0.0013852733245827348
aI0
aF0.0010387343904118527
aF0.0024235665089441904
aI0
aI0
aI0
aI0
aI0
aI0
aI0
aI0
aI0
aI0
aI0
aI0
aI0
aI0
aI0
aI0
aI0
aI0
aI0
aI0
aI0
aI0
aI0
aI0
aI0
aI0
aI0
aI0
aI0
aI0
aI0
aI0
aI0
aI0
aI0
aI0
aI0
aI0
aI0
aI0
aI0
aI0
aI0
aI0
aI0
aI0
aI0
aI0
aI0
aI0
aI0
aI0
aI0
aI0
aI0
aI0
aI0
aI0
aI0
aI0
aI0
aI0
aI0
aI0
aI0
aI0
aI0
aI0
aI0
aI0
aI0
aI0
aI0
aI0
aI0
aF0.007967586484697902
aF0.001385287707853075
aF0.001385287707853075
aF0.0006921954562409703
aF0.0010382931843614554
aF0.0010382931843614554
aF0.0010387343904118527
aF0.004157811466549702
aF0.008746154188258512
aF0.002078409347465159
aF0.001469340430879639
aF0.00173137105270322
aF0.001385287707853075
aF0.001385287707853075
aF0.009008722276152016
aF0.006582295043078824
aF0.008663229132384574
aF0.0006921954562409703
aF0.0006921954562409703
aF0.005973191754780441
aF0.001384832118532338
aF0.001731846914237754
aF0.0006921954562409703
aF0.0024240220982649275
aF0.0006921954562409703
aF0.006928864282808887
aF0.00173138543597356
aF0.0024249738217506246
aF0.0166628080852086
aF0.0020765863687229108
aF0.001384832118532338
aF0.0010382931843614554
aF0.003810729684288719
aI0
aI0
aF0.0006921954562409703
aF8.494951839769862e-05
aF0.004156344874453844
aF0.0006921954562409703
aF0.001731846914237754
aF0.003808854216797265
aF0.0031171437378770114
aF0.002770581304649607
aF0.002078409347465159
aF0.0062337992715905816
aF0.0010387343904118527
aF0.0006921954562409703
aF0.0027710715498711095
aF0.0006921954562409703
aF0.0010387343904118527
aF0.0010387343904118527
aI0
aF0.0
aI0
aF0.0013843909124819406
aF0.0020779446423582395
aF0.0006921954562409703
aF0.001384832118532338
aF0.001385287707853075
aF0.001385287707853075
aI0
aF0.0024249738217506246
aF0.001385287707853075
aF0.01663380568095278
aF0.0010387343904118527
aF0.0006921954562409703
aF0.002771539704556129
aF0.0010387343904118527
aF0.0006921954562409703
aF0.0031181066183111135
aF0.0010387343904118527
aF0.0010387343904118527
aI0
aF0.0006921954562409703
aF0.0020770275747733083
aI0
aI0
aI0
aI0
aI0
aI0
aI0
aI0
aI0
aI0
aI0
aI0
aI0
aI0
aI0
aI0
aI0
aI0
aI0
aI0
aI0
aI0
aI0
aI0
aI0
aI0
aI0
aI0
aI0
aI0
aI0
aI0
aI0
aI0
aI0
aI0
aI0
aI0
aI0
aI0
aI0
aI0
aI0
aI0
aI0
aI0
aI0
aI0
aI0
aI0
aI0
aI0
aI0
aI0
aI0
aI0
aI0
aI0
aI0
aI0
aI0
aI0
aI0
aI0
aI0
aI0
aI0
aI0
aI0
aI0
aI0
aI0
aI0
aI0
aI0
aF0.007153750313596778
aF0.0009538195281232442
aF0.0009538195281232442
aF0.0013843909124819406
aF0.0017304886406024258
aF0.0017304886406024258
aF0.001730929846652823
aF0.0048500069227906725
aF0.009699939060272667
aF0.0027706048037061293
aF0.0024231253028937933
aF0.0024235665089441904
aF0.0020774831640940454
aF0.0020774831640940454
aF0.009700917732392986
aF0.006582295043078824
aF0.007257233366563124
aF0.0020765863687229108
aF0.0013843909124819406
aF0.005576325194410359
aF0.001384832118532338
aF0.0024240423704787245
aF0.0013843909124819406
aF0.003116217554505898
aF0.0013843909124819406
aF0.004905619909623595
aF0.0012999172562437294
aF0.0031171692779915945
aF0.01688979588162203
aF0.0027687818249638816
aF0.001384832118532338
aF0.0010382931843614554
aF0.00450292514052969
aI0
aI0
aF0.0013843909124819408
aF0.001730929846652823
aF0.004156344874453844
aF0.0013843909124819406
aF0.0024240423704787245
aF0.0038088542167972654
aF0.003809339194117982
aF0.0018167964326354527
aF0.0027706048037061293
aF0.0062337992715905816
aF0.001730929846652823
aF0.0013843909124819408
aF0.0034632670061120795
aF0.0013843909124819408
aF0.001730929846652823
aF0.001730929846652823
aI0
aF0.0013843909124819406
aI0
aF0.0
aF0.0027701400985992095
aF0.0013843909124819406
aF0.0020770275747733083
aF0.0020774831640940454
aF0.0009538195281232443
aI0
aF0.0016828034741913473
aF0.0009538195281232443
aF0.017326001137193747
aF0.001730929846652823
aF0.0013843909124819406
aF0.0034637351607970995
aF0.0007771449746386689
aF0.0013843909124819406
aF0.003810302074552084
aF0.001730929846652823
aF0.001730929846652823
aI0
aF0.0013843909124819406
aF0.0020770275747733083
aF0.009353335670815172
aF0.002771036893970344
aF0.002771036893970344
aF0.0020779446423582395
aF0.0024240423704787245
aF0.0024240423704787245
aF0.0024244835765291216
aF0.00554356065266697
aF0.011085688246389936
aF0.003464158533582428
aF0.003116679032770092
aF0.0031171202388204896
aF0.002771036893970344
aF0.002771036893970344
aF0.005506422828033372
aF0.00361982137321344
aF0.010048978318501843
aF0.0027701400985992095
aF0.0020779446423582395
aF0.007620530356670895
aF0.002770581304649607
aF0.003117596100355023
aF0.0020779446423582395
aF0.0038097712843821966
aF0.0020779446423582395
aF0.008314613468926157
aF0.002424939165849859
aF0.003810723007867893
aF0.015575740499568155
aF0.0034623355548401803
aF0.002770581304649607
aF0.0024240423704787245
aF0.005196478870405988
aI0
aI0
aF0.0020779446423582395
aF0.0024244835765291216
aF0.005542094060571113
aF0.0020779446423582395
aF0.0018676110786716629
aF0.004070939766943733
aF0.0035491080519801264
aF0.001384832118532338
aF0.003464158533582428
aF0.006665763585693696
aF0.0024244835765291216
aF0.0020779446423582395
aF0.004156820735988378
aF0.0020779446423582395
aF0.0024244835765291216
aF0.0024244835765291216
aI0
aF0.0020779446423582395
aI0
aF0.0027701400985992095
aF0.0
aF0.0020779446423582395
aF0.002770581304649607
aF0.002771036893970344
aF0.002771036893970344
aI0
aF0.003810723007867893
aF0.002771036893970344
aF0.018019554867070044
aF0.0024244835765291216
aF0.0020779446423582395
aF0.004157288890673398
aF0.0024244835765291216
aF0.0020779446423582395
aF0.004503855804428383
aF0.0024244835765291216
aF0.0024244835765291216
aI0
aF0.0020779446423582395
aF0.002770581304649607
aF0.006461554857355807
aF0.001385287707853075
aF0.001385287707853075
aF0.0006921954562409703
aF0.0010382931843614554
aF0.0010382931843614554
aF0.0010387343904118527
aF0.004157811466549702
aF0.008746154188258514
aF0.002078409347465159
aF0.0024231253028937937
aF0.00173137105270322
aF0.001385287707853075
aF0.001385287707853075
aF0.007502690648809921
aF0.005332310021395463
aF0.008663229132384574
aF0.0013843909124819408
aF0.0006921954562409703
aF0.006926976626794596
aF0.001384832118532338
aF0.001731846914237754
aF0.0006921954562409703
aF0.0024240220982649275
aF0.0006921954562409703
aF0.006928864282808887
aF0.00173138543597356
aF0.0024249738217506246
aF0.01688979588162203
aF0.0013843909124819406
aF0.001384832118532338
aF0.0010382931843614554
aF0.002687066048317918
aI0
aI0
aF0.0006921954562409703
aF0.0010387343904118527
aF0.004156344874453844
aF0.0
aF0.001731846914237754
aF0.003808854216797265
aF0.0031171437378770114
aF0.002770581304649607
aF0.002078409347465159
aF0.0062337992715905816
aF0.0010387343904118527
aF0.0006921954562409703
aF0.0027710715498711095
aF0.0006921954562409703
aF0.0010387343904118527
aF0.0010387343904118527
aI0
aF0.0006921954562409703
aI0
aF0.0013843909124819406
aF0.0020779446423582395
aF0.0
aF0.001384832118532338
aF0.001385287707853075
aF0.001385287707853075
aI0
aF0.0024249738217506246
aF0.001385287707853075
aF0.01663380568095278
aF0.0010387343904118527
aF0.0006921954562409703
aF0.002771539704556129
aF0.0010387343904118527
aF0.0006921954562409703
aF0.0031181066183111135
aF0.0010387343904118527
aF0.0010387343904118527
aI0
aF0.0006921954562409703
aF0.0020770275747733083
aF0.007968027690748298
aF0.0020779243701444425
aF0.0020779243701444425
aF0.0013848321185323377
aF0.001730929846652823
aF0.001730929846652823
aF0.00173137105270322
aF0.004850448128841069
aF0.006191244131546788
aF0.0006781693000318934
aF0.003115761965185161
aF0.0014702228429804335
aF0.0009542607341736413
aF0.0020779243701444425
aF0.009701358938443384
aF0.007274931705370191
aF0.009355865794675943
aF0.0011232427027591542
aF0.0006926366622913674
aF0.004544823610878289
aF0.002077468780823705
aF0.0024244835765291216
aF0.001384832118532338
aF0.001992995124585494
aF0.0013848321185323377
aF0.007621500945100254
aF0.002424022098264928
aF0.0031176104840419916
aF0.01706011585162908
aF0.0027692230310142783
aF0.002077468780823705
aF0.0017309298466528231
aF0.004503366346580087
aI0
aI0
aF0.001384832118532338
aF0.00173137105270322
aF0.0038951966647310576
aF0.001384832118532338
aF0.002424483576529122
aF0.004501490879088633
aF0.003809780400168379
aF0.0034632179669409745
aF0.0027710460097565264
aF0.004064164250254554
aF0.00173137105270322
aF0.001384832118532338
aF0.0034637082121624775
aF0.001384832118532338
aF0.00173137105270322
aF0.00173137105270322
aI0
aF0.001384832118532338
aI0
aF0.0020770275747733083
aF0.002770581304649607
aF0.001384832118532338
aF0.0
aF0.0020779243701444425
aF0.0020779243701444425
aI0
aF0.0031176104840419916
aF0.0020779243701444425
aF0.017326442343244146
aF0.00173137105270322
aF0.001384832118532338
aF0.003464176366847496
aF0.00173137105270322
aF0.001384832118532338
aF0.003810743280602481
aF0.00173137105270322
aF0.00173137105270322
aI0
aF0.001384832118532338
aF0.002769664237064676
aF0.008660678736310008
aF0.0020783799594651796
aF0.0020783799594651796
aF0.001385287707853075
aF0.00173138543597356
aF0.00173138543597356
aF0.0017318266420239571
aF0.004850903718161806
aF0.010393031311884772
aF0.0027715015990772635
aF0.0031162175545058983
aF0.0024244633043153246
aF0.0020783799594651796
aF0.0020783799594651796
aF0.00970181452776412
aF0.007275387294690928
aF0.009356321383996679
aF0.0020774831640940454
aF0.001385287707853075
aF0.0076200688784067005
aF0.002077924370144442
aF0.002424939165849859
aF0.001385287707853075
aF0.003117114349877032
aF0.001385287707853075
aF0.007621956534420991
aF0.002424477687585665
aF0.003118066073362729
aF0.018706551769204938
aF0.0027696786203350154
aF0.002077924370144442
aF0.00173138543597356
aF0.004503821935900824
aI0
aI0
aF0.001385287707853075
aF0.0017318266420239571
aF0.004849437126065949
aF0.001385287707853075
aF0.002424939165849859
aF0.00450194646840937
aF0.0026865723535183152
aF0.003463673556261711
aF0.0027715015990772635
aF0.006926891523202686
aF0.0017318266420239571
aF0.001385287707853075
aF0.003464163801483214
aF0.001385287707853075
aF0.0017318266420239571
aF0.0017318266420239571
aI0
aF0.001385287707853075
aI0
aF0.0020774831640940454
aF0.002771036893970344
aF0.001385287707853075
aF0.0020779243701444425
aF0.0
aF0.0020783799594651796
aI0
aF0.003118066073362729
aF0.0020783799594651796
aF0.01732689793256488
aF0.0017318266420239571
aF0.001385287707853075
aF0.0034646319561682337
aF0.0017318266420239571
aF0.001385287707853075
aF0.0038111988699232177
aF0.0017318266420239571
aF0.0017318266420239571
aI0
aF0.001385287707853075
aF0.002770119826385413
aF0.005607461172667033
aF0.0020783799594651796
aF0.0020783799594651796
aF0.001385287707853075
aF0.00173138543597356
aF0.00173138543597356
aF0.0017318266420239571
aF0.004850903718161806
aF0.010393031311884772
aF0.0027715015990772635
aF0.0031162175545058983
aF0.0024244633043153246
aF0.0020783799594651796
aF0.0020783799594651796
aF0.00970181452776412
aF0.007275387294690928
aF0.004648253643678333
aF0.0020774831640940454
aF0.001385287707853075
aF0.0076200688784067005
aF0.002077924370144442
aF0.002424939165849859
aF0.001385287707853075
aF0.0031171143498770317
aF0.001385287707853075
aF0.007621956534420991
aF0.002424477687585665
aF0.003118066073362729
aF0.018706551769204938
aF0.0027696786203350154
aF0.002077924370144442
aF0.00173138543597356
aF0.004503821935900824
aI0
aI0
aF0.001385287707853075
aF0.0017318266420239571
aF0.004849437126065948
aF0.001385287707853075
aF0.002424939165849859
aF0.00450194646840937
aF0.003810235989489116
aF0.003463673556261711
aF0.0027715015990772635
aF0.006926891523202686
aF0.0017318266420239571
aF0.001385287707853075
aF0.003464163801483214
aF0.001385287707853075
aF0.0017318266420239571
aF0.0017318266420239571
aI0
aF0.001385287707853075
aI0
aF0.0009538195281232443
aF0.002771036893970344
aF0.001385287707853075
aF0.0020779243701444425
aF0.0020783799594651796
aF0.0
aI0
aF0.0002548485551930958
aF0.0
aF0.01732689793256488
aF0.0017318266420239571
aF0.001385287707853075
aF0.0034646319561682337
aF5.0338783876722164e-05
aF0.001385287707853075
aF0.0038111988699232177
aF0.0017318266420239571
aF0.0017318266420239571
aI0
aF0.001385287707853075
aF0.002770119826385413
aI0
aI0
aI0
aI0
aI0
aI0
aI0
aI0
aI0
aI0
aI0
aI0
aI0
aI0
aI0
aI0
aI0
aI0
aI0
aI0
aI0
aI0
aI0
aI0
aI0
aI0
aI0
aI0
aI0
aI0
aI0
aI0
aI0
aI0
aI0
aI0
aI0
aI0
aI0
aI0
aI0
aI0
aI0
aI0
aI0
aI0
aI0
aI0
aI0
aI0
aI0
aI0
aI0
aI0
aI0
aI0
aI0
aI0
aI0
aI0
aI0
aI0
aI0
aI0
aI0
aI0
aI0
aI0
aI0
aI0
aI0
aI0
aI0
aI0
aI0
aF0.00521529655965919
aF0.003118066073362729
aF0.003118066073362729
aF0.0024249738217506246
aF0.0027710715498711095
aF0.0027710715498711095
aF0.0027715127559215067
aF0.005890589832059355
aF0.011432717425782321
aF0.0038111877129748126
aF0.004155903668403447
aF0.0034641494182128746
aF0.003118066073362729
aF0.003118066073362729
aF0.010741500641661671
aF0.008315073408588477
aF0.002891171355326362
aF0.0031171692779915945
aF0.0024249738217506246
aF0.00865975499230425
aF0.003117610484041992
aF0.0034646252797474082
aF0.0024249738217506246
aF0.004156800463774582
aF0.0024249738217506246
aF0.00866164264831854
aF0.003464163801483214
aF0.004157752187260278
aF0.019746237883102487
aF0.0038093647342325654
aF0.003117610484041992
aF0.0027710715498711095
aF0.005543508049798373
aI0
aI0
aF0.0024249738217506246
aF0.0027715127559215067
aF0.005889123239963498
aF0.0024249738217506246
aF0.0034646252797474082
aF0.005541632582306919
aF0.004849922103386666
aF0.004503359670159262
aF0.0038111877129748126
aF0.007966577637100236
aF0.0027715127559215067
aF0.0024249738217506246
aF0.004503849915380763
aF0.0024249738217506246
aF0.0027715127559215067
aF0.0027715127559215067
aI0
aF0.0024249738217506246
aI0
aF0.0016828034741913473
aF0.003810723007867893
aF0.0024249738217506246
aF0.0031176104840419916
aF0.003118066073362729
aF0.0002548485551930958
aI0
aF0.0
aF0.0002548485551930958
aF0.01836658404646243
aF0.0027715127559215067
aF0.0024249738217506246
aF0.004504318070065783
aF0.0005232481437645478
aF0.0024249738217506246
aF0.004850884983820768
aF0.0027715127559215067
aF0.0027715127559215067
aI0
aF0.0024249738217506246
aF0.003809805940282962
aF0.005607461172667033
aF0.0020783799594651796
aF0.0020783799594651796
aF0.001385287707853075
aF0.00173138543597356
aF0.00173138543597356
aF0.0017318266420239571
aF0.004850903718161806
aF0.010393031311884772
aF0.0027715015990772635
aF0.0031162175545058983
aF0.0024244633043153246
aF0.0020783799594651796
aF0.0020783799594651796
aF0.00970181452776412
aF0.007275387294690928
aF0.004648253643678333
aF0.0020774831640940454
aF0.001385287707853075
aF0.0076200688784067005
aF0.002077924370144442
aF0.002424939165849859
aF0.001385287707853075
aF0.0031171143498770317
aF0.001385287707853075
aF0.007621956534420991
aF0.002424477687585665
aF0.003118066073362729
aF0.018706551769204938
aF0.0027696786203350154
aF0.002077924370144442
aF0.00173138543597356
aF0.004503821935900824
aI0
aI0
aF0.001385287707853075
aF0.0017318266420239571
aF0.004849437126065948
aF0.001385287707853075
aF0.002424939165849859
aF0.00450194646840937
aF0.003810235989489116
aF0.003463673556261711
aF0.0027715015990772635
aF0.006926891523202686
aF0.0017318266420239571
aF0.001385287707853075
aF0.003464163801483214
aF0.001385287707853075
aF0.0017318266420239571
aF0.0017318266420239571
aI0
aF0.001385287707853075
aI0
aF0.0009538195281232443
aF0.002771036893970344
aF0.001385287707853075
aF0.0020779243701444425
aF0.0020783799594651796
aF0.0
aI0
aF0.0002548485551930958
aF0.0
aF0.01732689793256488
aF0.0017318266420239571
aF0.001385287707853075
aF0.0034646319561682337
aF5.0338783876722164e-05
aF0.001385287707853075
aF0.0038111988699232177
aF0.0017318266420239571
aF0.0017318266420239571
aI0
aF0.001385287707853075
aF0.002770119826385413
aF0.023909196709409705
aF0.01732689793256488
aF0.01732689793256488
aF0.01663380568095278
aF0.014682393815200517
aF0.014682393815200517
aF0.016980344615123658
aF0.02009942169126151
aF0.02564154928498447
aF0.018020019572176967
aF0.018364735527605598
aF0.017672981277415026
aF0.01732689793256488
aF0.01732689793256488
aF0.024950332500863825
aF0.022523905267790627
aF0.02460483935709638
aF0.017326001137193747
aF0.01663380568095278
aF0.0228685868515064
aF0.017326442343244146
aF0.011172997881799158
aF0.01663380568095278
aF0.018365632322976732
aF0.014336296087080033
aF0.02287047450752069
aF0.017672995660685364
aF0.01836658404646243
aF0.03395506974230464
aF0.018018196593434715
aF0.017326442343244146
aF0.016979903409073262
aF0.019752339909000525
aI0
aI0
aF0.014913861399425783
aF0.016980344615123658
aF0.02009795509916565
aF0.01663380568095278
aF0.01767345713894956
aF0.01573301056610933
aF0.01905875396258882
aF0.018712191529361412
aF0.018020019572176967
aF0.022175409496302385
aF0.014190851245493713
aF0.014913861399425783
aF0.016992737493055923
aF0.014913861399425783
aF0.014190851245493713
aF0.016980344615123658
aI0
aF0.01663380568095278
aI0
aF0.017326001137193747
aF0.018019554867070044
aF0.01663380568095278
aF0.017326442343244146
aF0.01732689793256488
aF0.01732689793256488
aI0
aF0.01836658404646243
aF0.01732689793256488
aF0.0
aF0.016980344615123658
aF0.01663380568095278
aF0.018713149929267935
aF0.016980344615123658
aF0.01663380568095278
aF0.008629886823475588
aF0.016980344615123658
aF0.016980344615123658
aI0
aF0.01663380568095278
aF0.014102154391398225
aF0.008314125418868785
aF0.0017318266420239571
aF0.0017318266420239571
aF8.494951839769862e-05
aF0.00043104724651818374
aF0.00043104724651818374
aF0.0013852733245827348
aF0.004504350400720584
aF0.01004647799444355
aF0.002424948281636041
aF0.0018158793650505216
aF0.002077909986874102
aF0.0017318266420239571
aF0.0017318266420239571
aF0.0076737733521756646
aF0.00554356065266697
aF0.009009768066555457
aF0.001730929846652823
aF0.0010387343904118527
aF0.006319730688951324
aF0.00173137105270322
aF0.002078385848408636
aF0.0010387343904118527
aF0.0027705610324358096
aF0.0010387343904118527
aF0.0063216183449656144
aF0.002077924370144442
aF0.0027715127559215067
aF0.01611173383960676
aF0.0014693404308796392
aF0.00173137105270322
aF0.001384832118532338
aF0.004157268618459601
aI0
aI0
aF0.0010387343904118527
aF0.0013852733245827348
aF0.004502883808624727
aF0.0010387343904118527
aF0.002078385848408636
aF0.004155393150968147
aF0.0034636826720478935
aF0.0031171202388204887
aF0.002424948281636041
aF0.00562655333374731
aF0.0013852733245827348
aF0.0010387343904118527
aF0.003117610484041992
aF0.0010387343904118527
aF0.0013852733245827348
aF0.0013852733245827348
aI0
aF0.0010387343904118527
aI0
aF0.001730929846652823
aF0.0024244835765291216
aF0.0010387343904118527
aF0.00173137105270322
aF0.0017318266420239571
aF0.0017318266420239571
aI0
aF0.0027715127559215067
aF0.0017318266420239571
aF0.016980344615123658
aF0.0
aF0.0010387343904118527
aF0.0031180786387270116
aF0.0013852733245827348
aF0.0010387343904118527
aF0.0034646455524819956
aF0.0013852733245827348
aF0.0013852733245827348
aI0
aF0.0010387343904118527
aF0.0024235665089441904
aF0.006616935052313665
aF0.001385287707853075
aF0.001385287707853075
aF0.0006921954562409703
aF0.0010382931843614554
aF0.0010382931843614554
aF0.0010387343904118527
aF0.004157811466549702
aF0.009699939060272667
aF0.002078409347465159
aF0.0024231253028937937
aF0.00173137105270322
aF0.001385287707853075
aF0.001385287707853075
aF0.009008722276152016
aF0.006582295043078824
aF0.008663229132384574
aF0.0013843909124819408
aF0.0006921954562409703
aF0.006234781170553625
aF0.001384832118532338
aF0.001731846914237754
aF0.0006921954562409703
aF0.0024240220982649275
aF0.0006921954562409703
aF0.006928864282808887
aF0.00173138543597356
aF0.0009906080179503769
aF0.018013459517592836
aF0.0020765863687229108
aF0.001384832118532338
aF0.0010382931843614554
aF0.003810729684288719
aI0
aI0
aF0.0006921954562409703
aF0.0010387343904118527
aF0.004156344874453844
aF0.0006921954562409703
aF0.001731846914237754
aF0.003808854216797265
aF0.0031171437378770114
aF0.002770581304649607
aF0.002078409347465159
aF0.0062337992715905816
aF0.0010387343904118527
aF0.0006921954562409703
aF0.0027710715498711095
aF0.0006921954562409703
aF0.0010387343904118527
aF0.0010387343904118527
aI0
aF0.0006921954562409703
aI0
aF0.0013843909124819406
aF0.0020779446423582395
aF0.0006921954562409703
aF0.001384832118532338
aF0.001385287707853075
aF0.001385287707853075
aI0
aF0.0024249738217506246
aF0.001385287707853075
aF0.01663380568095278
aF0.0010387343904118527
aF0.0
aF0.002771539704556129
aF0.0010387343904118527
aF0.0006921954562409703
aF0.0031181066183111135
aF0.0010387343904118527
aF8.494951839769862e-05
aI0
aF0.0
aF0.0020770275747733083
aF0.01004693073301306
aF0.0034646319561682337
aF0.0034646319561682337
aF0.002771539704556129
aF0.0031176374326766145
aF0.0031176374326766145
aF0.0031180786387270116
aF0.00623715571486486
aF0.011779283308587827
aF0.004157753595780318
aF0.004502469551208952
aF0.0038107153010183787
aF0.0034646319561682337
aF0.0034646319561682337
aF0.011088066524467175
aF0.008661639291393982
aF0.010742573380699734
aF0.0034637351607970995
aF0.002771539704556129
aF0.009006320875109754
aF0.003464176366847496
aF0.003811191162552913
aF0.002771539704556129
aF0.004503366346580086
aF0.002771539704556129
aF0.009008208531124044
aF0.003810729684288719
aF0.004504318070065783
aF0.020092803765907996
aF0.0041559306170380695
aF0.003464176366847496
aF0.0031176374326766145
aF0.005890073932603879
aI0
aI0
aF0.002771539704556129
aF0.0031180786387270116
aF0.006235689122769002
aF0.002771539704556129
aF0.003811191162552913
aF0.0035056042431457204
aF0.0011224578778223707
aF0.004849925552964766
aF0.004157753595780318
aF0.006807111892563646
aF0.0031180786387270116
aF0.002771539704556129
aF0.004850415798186268
aF0.002771539704556129
aF0.0031180786387270116
aF0.0031180786387270116
aI0
aF0.002771539704556129
aI0
aF0.0034637351607970995
aF0.004157288890673398
aF0.002771539704556129
aF0.003464176366847496
aF0.0034646319561682337
aF0.0034646319561682337
aI0
aF0.004504318070065783
aF0.0034646319561682337
aF0.018713149929267935
aF0.0031180786387270116
aF0.002771539704556129
aF0.0
aF0.0031180786387270116
aF0.002771539704556129
aF0.005197450866626272
aF0.0031180786387270116
aF0.0031180786387270116
aI0
aF0.002771539704556129
aF0.004156371823088467
aF0.005931531196902082
aF0.0017318266420239571
aF0.0017318266420239571
aF0.0010387343904118527
aF0.0013848321185323377
aF0.0013848321185323377
aF0.0013852733245827348
aF0.004504350400720584
aF0.01004647799444355
aF0.002424948281636041
aF0.002769664237064676
aF0.002077909986874102
aF0.0017318266420239571
aF0.0017318266420239571
aF0.009355261210322898
aF0.006928833977249705
aF0.005485451497735314
aF0.001730929846652823
aF0.0010387343904118527
aF0.0072735155609654776
aF0.00173137105270322
aF0.002078385848408636
aF0.0010387343904118527
aF0.0027705610324358096
aF0.0010387343904118527
aF0.007275403216979769
aF0.002077924370144442
aF0.0027715127559215067
aF0.018359998451763712
aF0.0024231253028937933
aF0.00173137105270322
aF0.001384832118532338
aF0.004157268618459601
aI0
aI0
aF0.0010387343904118527
aF0.0013852733245827348
aF0.004502883808624727
aF0.0010387343904118527
aF0.002078385848408636
aF0.004155393150968148
aF0.0034636826720478935
aF0.0031171202388204887
aF0.002424948281636041
aF0.006580338205761463
aF0.0013852733245827348
aF0.0010387343904118527
aF0.003117610484041992
aF0.0010387343904118527
aF0.0013852733245827348
aF0.0013852733245827348
aI0
aF0.0010387343904118527
aI0
aF0.0007771449746386689
aF0.0024244835765291216
aF0.0010387343904118527
aF0.00173137105270322
aF0.0017318266420239571
aF5.0338783876722164e-05
aI0
aF0.0005232481437645478
aF5.0338783876722164e-05
aF0.016980344615123658
aF0.0013852733245827348
aF0.0010387343904118527
aF0.0031180786387270116
aF0.0
aF0.0010387343904118527
aF0.0034646455524819956
aF0.0013852733245827348
aF0.0013852733245827348
aI0
aF0.0010387343904118527
aF0.0024235665089441904
aF0.007967586484697902
aF0.001385287707853075
aF0.001385287707853075
aF0.0006921954562409703
aF0.0010382931843614554
aF0.0010382931843614554
aF0.0010387343904118527
aF0.004157811466549702
aF0.009699939060272667
aF0.002078409347465159
aF0.0024231253028937937
aF0.00173137105270322
aF0.001385287707853075
aF0.001385287707853075
aF0.009008722276152016
aF0.006582295043078824
aF0.008663229132384574
aF0.0013843909124819408
aF0.0006921954562409703
aF0.006926976626794596
aF0.001384832118532338
aF0.001731846914237754
aF0.0006921954562409703
aF0.0024240220982649275
aF0.0006921954562409703
aF0.006928864282808887
aF0.00173138543597356
aF0.0024249738217506246
aF0.016579093713792584
aF0.0020765863687229108
aF0.001384832118532338
aF0.0010382931843614554
aF0.003810729684288719
aI0
aI0
aF0.0006921954562409703
aF0.0010387343904118527
aF0.004156344874453844
aF0.0006921954562409703
aF0.001731846914237754
aF0.003808854216797265
aF0.0031171437378770114
aF0.002770581304649607
aF0.002078409347465159
aF0.005280014399576427
aF0.0010387343904118527
aF0.0006921954562409703
aF0.0027710715498711095
aF0.0006921954562409703
aF0.0010387343904118527
aF0.0010387343904118527
aI0
aF0.0006921954562409703
aI0
aF0.0013843909124819406
aF0.0020779446423582395
aF0.0006921954562409703
aF0.001384832118532338
aF0.001385287707853075
aF0.001385287707853075
aI0
aF0.0024249738217506246
aF0.001385287707853075
aF0.01663380568095278
aF0.0010387343904118527
aF0.0006921954562409703
aF0.002771539704556129
aF0.0010387343904118527
aF0.0
aF0.0031181066183111135
aF8.494951839769862e-05
aF0.0010387343904118527
aI0
aF0.0006921954562409703
aF0.0020770275747733083
aF0.010393497646768045
aF0.0038111988699232177
aF0.0038111988699232177
aF0.0031181066183111135
aF0.0018955156093465953
aF0.0018955156093465953
aF0.0034646455524819956
aF0.006583722628619844
aF0.012125850222342811
aF0.004504320509535302
aF0.004849036464963936
aF0.004157282214773363
aF0.0038111988699232177
aF0.0038111988699232177
aF0.01143463343822216
aF0.009008206205148967
aF0.011089140294454718
aF0.003810302074552084
aF0.0031181066183111135
aF0.009352887788864738
aF0.003810743280602481
aF0.00033979807359079447
aF0.0031181066183111135
aF0.00484993326033507
aF0.00154941788122611
aF0.009354775444879029
aF0.004157296598043703
aF0.004850884983820768
aF0.020439370679662977
aF0.004502497530793054
aF0.003810743280602481
aF0.0034642043464315985
aF0.006236640846358862
aI0
aI0
aF0.0031181066183111135
aF0.0034646455524819956
aF0.006582256036523987
aF0.0031181066183111135
aF0.004157758076307897
aF0.004666076641782405
aF0.0055430548999471545
aF0.00519649246671975
aF0.004504320509535302
aF0.008659710433660725
aF0.0034646455524819956
aF0.0031181066183111135
aF0.005196982711941252
aF0.0031181066183111135
aF0.0034646455524819956
aF0.0034646455524819956
aI0
aF0.0031181066183111135
aI0
aF0.003810302074552084
aF0.004503855804428383
aF0.0031181066183111135
aF0.003810743280602481
aF0.0038111988699232177
aF0.0038111988699232177
aI0
aF0.004850884983820768
aF0.0038111988699232177
aF0.008629886823475588
aF0.0034646455524819956
aF0.0031181066183111135
aF0.005197450866626272
aF0.0034646455524819956
aF0.0031181066183111135
aF0.0
aF0.0034646455524819956
aF0.0034646455524819956
aI0
aF0.0031181066183111135
aF0.0020020169694702434
aF0.008314125418868784
aF0.0017318266420239571
aF0.0017318266420239571
aF0.0010387343904118527
aF0.0013848321185323377
aF0.0013848321185323377
aF0.0013852733245827348
aF0.004504350400720584
aF0.01004647799444355
aF0.002424948281636041
aF0.002769664237064676
aF0.0020779099868741026
aF0.0017318266420239571
aF0.0017318266420239571
aF0.0093552612103229
aF0.006928833977249705
aF0.009009768066555457
aF0.001730929846652823
aF0.0010387343904118527
aF0.0072735155609654776
aF0.00173137105270322
aF0.002078385848408636
aF0.0010387343904118527
aF0.0027705610324358096
aF0.0010387343904118527
aF0.007275403216979769
aF0.002077924370144442
aF0.0027715127559215067
aF0.016111733839606755
aF0.0024231253028937933
aF0.00173137105270322
aF0.001384832118532338
aF0.004157268618459602
aI0
aI0
aF0.0010387343904118527
aF0.0013852733245827348
aF0.004502883808624727
aF0.0010387343904118527
aF0.002078385848408636
aF0.004155393150968148
aF0.003463682672047894
aF0.0031171202388204887
aF0.002424948281636041
aF0.005195064881178728
aF0.0013852733245827348
aF0.0010387343904118527
aF0.003117610484041992
aF0.0010387343904118527
aF0.0013852733245827348
aF0.0013852733245827348
aI0
aF0.0010387343904118527
aI0
aF0.001730929846652823
aF0.0024244835765291216
aF0.0010387343904118527
aF0.00173137105270322
aF0.0017318266420239571
aF0.0017318266420239571
aI0
aF0.0027715127559215067
aF0.0017318266420239571
aF0.016980344615123658
aF0.0013852733245827348
aF0.0010387343904118527
aF0.0031180786387270116
aF0.0013852733245827348
aF8.494951839769862e-05
aF0.0034646455524819956
aF0.0
aF0.0013852733245827348
aI0
aF0.0010387343904118527
aF0.0024235665089441904
aF0.006221248709144151
aF0.0017318266420239571
aF0.0017318266420239571
aF0.0010387343904118527
aF0.0013848321185323377
aF0.0013848321185323377
aF0.0013852733245827348
aF0.004504350400720584
aF0.01004647799444355
aF0.002424948281636041
aF0.002769664237064676
aF0.002077909986874102
aF0.0017318266420239571
aF0.0017318266420239571
aF0.009355261210322898
aF0.006928833977249705
aF0.009009768066555457
aF0.001730929846652823
aF0.0010387343904118527
aF0.006319730688951325
aF0.00173137105270322
aF0.002078385848408636
aF0.0010387343904118527
aF0.0027705610324358096
aF0.0010387343904118527
aF0.007275403216979769
aF0.002077924370144442
aF0.0005232481437645478
aF0.018359998451763712
aF0.0024231253028937933
aF0.00173137105270322
aF0.001384832118532338
aF0.004157268618459601
aI0
aI0
aF0.0010387343904118527
aF0.0013852733245827348
aF0.004502883808624727
aF0.0010387343904118527
aF0.002078385848408636
aF0.004155393150968148
aF0.0034636826720478935
aF0.0031171202388204887
aF0.002424948281636041
aF0.006580338205761463
aF0.0013852733245827348
aF0.0010387343904118527
aF0.003117610484041992
aF0.0010387343904118527
aF0.0013852733245827348
aF0.0013852733245827348
aI0
aF0.0010387343904118527
aI0
aF0.001730929846652823
aF0.0024244835765291216
aF0.0010387343904118527
aF0.00173137105270322
aF0.0017318266420239571
aF0.0017318266420239571
aI0
aF0.0027715127559215067
aF0.0017318266420239571
aF0.016980344615123658
aF0.0013852733245827348
aF8.494951839769862e-05
aF0.0031180786387270116
aF0.0013852733245827348
aF0.0010387343904118527
aF0.0034646455524819956
aF0.0013852733245827348
aF0.0
aI0
aF8.494951839769862e-05
aF0.0024235665089441904
aI0
aI0
aI0
aI0
aI0
aI0
aI0
aI0
aI0
aI0
aI0
aI0
aI0
aI0
aI0
aI0
aI0
aI0
aI0
aI0
aI0
aI0
aI0
aI0
aI0
aI0
aI0
aI0
aI0
aI0
aI0
aI0
aI0
aI0
aI0
aI0
aI0
aI0
aI0
aI0
aI0
aI0
aI0
aI0
aI0
aI0
aI0
aI0
aI0
aI0
aI0
aI0
aI0
aI0
aI0
aI0
aI0
aI0
aI0
aI0
aI0
aI0
aI0
aI0
aI0
aI0
aI0
aI0
aI0
aI0
aI0
aI0
aI0
aI0
aI0
aF0.006616935052313665
aF0.001385287707853075
aF0.001385287707853075
aF0.0006921954562409703
aF0.0010382931843614554
aF0.0010382931843614554
aF0.0010387343904118527
aF0.004157811466549702
aF0.009699939060272667
aF0.002078409347465159
aF0.0024231253028937937
aF0.00173137105270322
aF0.001385287707853075
aF0.001385287707853075
aF0.009008722276152016
aF0.006582295043078824
aF0.008663229132384574
aF0.0013843909124819408
aF0.0006921954562409703
aF0.006234781170553625
aF0.001384832118532338
aF0.001731846914237754
aF0.0006921954562409703
aF0.0024240220982649275
aF0.0006921954562409703
aF0.006928864282808887
aF0.00173138543597356
aF0.0009906080179503769
aF0.018013459517592836
aF0.0020765863687229108
aF0.001384832118532338
aF0.0010382931843614554
aF0.003810729684288719
aI0
aI0
aF0.0006921954562409703
aF0.0010387343904118527
aF0.004156344874453844
aF0.0006921954562409703
aF0.001731846914237754
aF0.003808854216797265
aF0.0031171437378770114
aF0.002770581304649607
aF0.002078409347465159
aF0.0062337992715905816
aF0.0010387343904118527
aF0.0006921954562409703
aF0.0027710715498711095
aF0.0006921954562409703
aF0.0010387343904118527
aF0.0010387343904118527
aI0
aF0.0006921954562409703
aI0
aF0.0013843909124819406
aF0.0020779446423582395
aF0.0006921954562409703
aF0.001384832118532338
aF0.001385287707853075
aF0.001385287707853075
aI0
aF0.0024249738217506246
aF0.001385287707853075
aF0.01663380568095278
aF0.0010387343904118527
aF0.0
aF0.002771539704556129
aF0.0010387343904118527
aF0.0006921954562409703
aF0.0031181066183111135
aF0.0010387343904118527
aF8.494951839769862e-05
aI0
aF0.0
aF0.0020770275747733083
aF0.00866022314698927
aF0.002770119826385413
aF0.002770119826385413
aF0.0020770275747733083
aF0.0014693404308796392
aF0.0014693404308796392
aF0.0024235665089441904
aF0.00554264358508204
aF0.010392575722564034
aF0.003463241465997497
aF0.0024235665089441904
aF0.0031162031712355575
aF0.002770119826385413
aF0.002770119826385413
aF0.010393554394684354
aF0.007274931705370191
aF0.010048061250916913
aF0.0027692230310142787
aF0.0020770275747733083
aF0.006927417832844993
aF0.0027696642370646754
aF0.0012081922211568529
aF0.001384832118532338
aF0.0038088542167972654
aF0.001123242702759154
aF0.00735991152932707
aF0.002424022098264928
aF0.003809805940282962
aF0.015405896392553877
aF0.0027692230310142783
aF0.0027696642370646754
aF0.0024231253028937933
aF0.005195561802821057
aI0
aI0
aF0.0020770275747733083
aF0.0024235665089441904
aF0.005541176992986183
aF0.0020770275747733083
aF0.0018666940110867317
aF0.0024240423711036777
aF0.0035481909843951952
aF0.003201628551167791
aF0.003463241465997497
aF0.005414861496425404
aF0.0024235665089441904
aF0.0020770275747733083
aF0.004155903668403448
aF0.0020770275747733083
aF0.0024235665089441904
aF0.0024235665089441904
aI0
aF0.0020770275747733083
aI0
aF0.0020770275747733083
aF0.002770581304649607
aF0.0020770275747733083
aF0.002769664237064676
aF0.002770119826385413
aF0.002770119826385413
aI0
aF0.003809805940282962
aF0.002770119826385413
aF0.014102154391398225
aF0.0024235665089441904
aF0.0020770275747733083
aF0.004156371823088467
aF0.0024235665089441904
aF0.0020770275747733083
aF0.0020020169694702434
aF0.0024235665089441904
aF0.0024235665089441904
aI0
aF0.0020770275747733083
aF0.0
a.