(dp0
S'minh'
p1
(dp2
S'minh'
p3
F0.0
sS'manmohan'
p4
F0.0013848321185323377
sS'cocos'
p5
F0.0010387343904118527
sS'memali'
p6
F0.002771539704556129
sS'rosmah'
p7
I0
sS'ali'
p8
F0.0013843909124819406
sS'esscom'
p9
F0.00154941788122611
sS'khalid'
p10
F0.006926976626794596
sS'balingian'
p11
F0.0010387343904118527
sS'reuters'
p12
F0.0062337992715905816
sS'orion'
p13
F0.004156344874453844
sS'zahid'
p14
F0.002078409347465159
sS'rodzali'
p15
F0.001731846914237754
sS'tony'
p16
F0.0024240220982649275
sS'klia'
p17
F0.001123242702759154
sS'perak'
p18
F0.0031171437378770114
sS'osama'
p19
F0.0006921954562409703
sS'najib'
p20
F0.007967586484697902
sS'facebook'
p21
F0.0020779446423582395
sS'zaharie'
p22
F0.009008722276152016
sS'pouria'
p23
F0.001385287707853075
sS'jackson'
p24
F0.0006921954562409703
sS'altantuyaa'
p25
I0
sS'sulaiman'
p26
I0
sS'fariq'
p27
F0.006582295043078824
sS'pakatan'
p28
F0.001385287707853075
sS'amsa'
p29
F0.001385287707853075
sS'mukah'
p30
F0.0006921954562409703
sS'talbott'
p31
F0.0006921954562409703
sS'andaman'
p32
F0.0020765863687229108
sS'yahya'
p33
F0.0013843909124819406
sS'melanau'
p34
F0.0006921954562409703
sS'taib'
p35
F0.0027710715498711095
sS'lrb'
p36
I0
sS'anwar'
p37
F0.008663229132384574
sS'hishammuddin'
p38
F0.009699939060272667
sS'khairul'
p39
F0.0006921954562409703
sS'mca'
p40
F0.0010387343904118527
sS'xinhua'
p41
F0.002078409347465159
sS'ronald'
p42
F0.00173138543597356
sS'digitalglobe'
p43
F0.0010387343904118527
sS'taliban'
p44
F0.0024249738217506246
sS'inmarsat'
p45
F0.003810729684288719
sS'delavar'
p46
F0.001385287707853075
sS'matthews'
p47
F0.001385287707853075
sS'mahathir'
p48
F0.001385287707853075
sS'francis'
p49
F0.00048186189255439377
sS'azharuddin'
p50
F0.0024231253028937933
sS'phu'
p51
F0.00034609772812048515
sS'kota'
p52
F0.003116658760556295
sS'qaeda'
p53
F0.0010387343904118527
sS'sabah'
p54
F0.014336296087080033
sS'nicobar'
p55
F0.0006921954562409703
sS'boeing'
p56
F0.018013459517592836
sS'adams'
p57
F0.0010387343904118527
sS'umno'
p58
F0.0024249738217506246
sS'icao'
p59
F0.0006921954562409703
sS'angus'
p60
F0.00173137105270322
sS'hurley'
p61
F0.0006921954562409703
sS'chunjiang'
p62
I0
sS'hmas'
p63
F0.0006921954562409703
sS'raaf'
p64
F0.004157811466549702
sS'ntsb'
p65
F0.0010387343904118527
sS'tho'
p66
F0.0006921954562409703
sS'pham'
p67
F0.00034609772812048515
sS'karpal'
p68
F0.001385287707853075
sS'petaling'
p69
F0.0006921954562409703
sS'maraldi'
p70
F0.001384832118532338
sS'kozel'
p71
F0.0010382931843614554
sS'interpol'
p72
F0.006928864282808887
sS'hassan'
p73
F0.0010387343904118527
sS'adenan'
p74
F0.0010387343904118527
sS'roos'
p75
F0.002770581304649607
sS'chunyong'
p76
I0
ssS'manmohan'
p77
(dp78
S'minh'
p79
F0.0013848321185323377
sS'manmohan'
p80
F0.0
sS'cocos'
p81
F0.00173137105270322
sS'memali'
p82
F0.003464176366847496
sS'rosmah'
p83
I0
sS'ali'
p84
F0.0020770275747733083
sS'esscom'
p85
F0.003810743280602481
sS'khalid'
p86
F0.004544823610878289
sS'balingian'
p87
F0.00173137105270322
sS'reuters'
p88
F0.004064164250254554
sS'orion'
p89
F0.0038951966647310576
sS'zahid'
p90
F0.0006781693000318934
sS'rodzali'
p91
F0.002424483576529122
sS'tony'
p92
F0.001992995124585494
sS'klia'
p93
F0.002769664237064676
sS'perak'
p94
F0.003809780400168379
sS'osama'
p95
F0.001384832118532338
sS'najib'
p96
F0.007968027690748298
sS'facebook'
p97
F0.002770581304649607
sS'zaharie'
p98
F0.009701358938443384
sS'pouria'
p99
F0.0020779243701444425
sS'jackson'
p100
F0.001384832118532338
sS'altantuyaa'
p101
I0
sS'sulaiman'
p102
I0
sS'fariq'
p103
F0.007274931705370191
sS'pakatan'
p104
F0.0020779243701444425
sS'amsa'
p105
F0.0009542607341736413
sS'mukah'
p106
F0.001384832118532338
sS'talbott'
p107
F0.001384832118532338
sS'andaman'
p108
F0.0027692230310142783
sS'yahya'
p109
F0.0011232427027591542
sS'melanau'
p110
F0.001384832118532338
sS'taib'
p111
F0.0034637082121624775
sS'lrb'
p112
I0
sS'anwar'
p113
F0.009355865794675943
sS'hishammuddin'
p114
F0.006191244131546788
sS'khairul'
p115
F0.001384832118532338
sS'mca'
p116
F0.00173137105270322
sS'xinhua'
p117
F0.0027710460097565264
sS'ronald'
p118
F0.002424022098264928
sS'digitalglobe'
p119
F0.00173137105270322
sS'taliban'
p120
F0.0031176104840419916
sS'inmarsat'
p121
F0.004503366346580087
sS'delavar'
p122
F0.0020779243701444425
sS'matthews'
p123
F0.0020779243701444425
sS'mahathir'
p124
F0.0020779243701444425
sS'francis'
p125
F0.0024244835765291216
sS'azharuddin'
p126
F0.003115761965185161
sS'phu'
p127
F0.001730929846652823
sS'kota'
p128
F0.004501490879088633
sS'qaeda'
p129
F0.00173137105270322
sS'sabah'
p130
F0.017326442343244146
sS'nicobar'
p131
F0.001384832118532338
sS'boeing'
p132
F0.01706011585162908
sS'adams'
p133
F0.00173137105270322
sS'umno'
p134
F0.0031176104840419916
sS'icao'
p135
F0.001384832118532338
sS'angus'
p136
F0.0014702228429804335
sS'hurley'
p137
F0.001384832118532338
sS'chunjiang'
p138
I0
sS'hmas'
p139
F0.0006926366622913674
sS'raaf'
p140
F0.004850448128841069
sS'ntsb'
p141
F0.00173137105270322
sS'tho'
p142
F0.0013848321185323377
sS'pham'
p143
F0.001730929846652823
sS'karpal'
p144
F0.0020779243701444425
sS'petaling'
p145
F0.001384832118532338
sS'maraldi'
p146
F0.002077468780823705
sS'kozel'
p147
F0.0017309298466528231
sS'interpol'
p148
F0.007621500945100254
sS'hassan'
p149
F0.00173137105270322
sS'adenan'
p150
F0.00173137105270322
sS'roos'
p151
F0.0034632179669409745
sS'chunyong'
p152
I0
ssS'cocos'
p153
(dp154
S'minh'
p155
F0.0010387343904118527
sS'manmohan'
p156
F0.00173137105270322
sS'cocos'
p157
F0.0
sS'memali'
p158
F0.0031180786387270116
sS'rosmah'
p159
I0
sS'ali'
p160
F0.001730929846652823
sS'esscom'
p161
F0.0034646455524819956
sS'khalid'
p162
F0.0058882422363827425
sS'balingian'
p163
F0.0013852733245827348
sS'reuters'
p164
F0.006580338205761463
sS'orion'
p165
F0.004502883808624727
sS'zahid'
p166
F0.002424948281636041
sS'rodzali'
p167
F0.002078385848408636
sS'tony'
p168
F0.0027705610324358096
sS'klia'
p169
F0.0024235665089441904
sS'perak'
p170
F0.0034636826720478935
sS'osama'
p171
F0.0010387343904118527
sS'najib'
p172
F0.008314125418868785
sS'facebook'
p173
F0.0024244835765291216
sS'zaharie'
p174
F0.009355261210322898
sS'pouria'
p175
F0.0017318266420239571
sS'jackson'
p176
F0.0010387343904118527
sS'altantuyaa'
p177
I0
sS'sulaiman'
p178
I0
sS'fariq'
p179
F0.006928833977249705
sS'pakatan'
p180
F0.0017318266420239571
sS'amsa'
p181
F0.0017318266420239571
sS'mukah'
p182
F0.0010387343904118527
sS'talbott'
p183
F0.0010387343904118527
sS'andaman'
p184
F0.0024231253028937933
sS'yahya'
p185
F0.0007771449746386689
sS'melanau'
p186
F0.0010387343904118527
sS'taib'
p187
F0.003117610484041992
sS'lrb'
p188
I0
sS'anwar'
p189
F0.009009768066555457
sS'hishammuddin'
p190
F0.008661204669860815
sS'khairul'
p191
F0.0010387343904118527
sS'mca'
p192
F0.0013852733245827348
sS'xinhua'
p193
F0.002424948281636041
sS'ronald'
p194
F0.002077924370144442
sS'digitalglobe'
p195
F0.0013852733245827348
sS'taliban'
p196
F0.0027715127559215067
sS'inmarsat'
p197
F0.004157268618459601
sS'delavar'
p198
F0.0017318266420239571
sS'matthews'
p199
F0.0017318266420239571
sS'mahathir'
p200
F0.0017318266420239571
sS'francis'
p201
F0.002078385848408636
sS'azharuddin'
p202
F0.0013843909124819406
sS'phu'
p203
F0.0013848321185323377
sS'kota'
p204
F0.004155393150968148
sS'qaeda'
p205
F0.0013852733245827348
sS'sabah'
p206
F0.016980344615123658
sS'nicobar'
p207
F0.0010387343904118527
sS'boeing'
p208
F0.016267121742039082
sS'adams'
p209
F0.0013852733245827348
sS'umno'
p210
F0.0027715127559215067
sS'icao'
p211
F0.0010387343904118527
sS'angus'
p212
F0.002077909986874102
sS'hurley'
p213
F8.494951839769862e-05
sS'chunjiang'
p214
I0
sS'hmas'
p215
F0.0010387343904118527
sS'raaf'
p216
F0.004504350400720584
sS'ntsb'
p217
F0.0013852733245827348
sS'tho'
p218
F0.0010387343904118527
sS'pham'
p219
F0.0013848321185323377
sS'karpal'
p220
F0.0017318266420239571
sS'petaling'
p221
F0.0010387343904118527
sS'maraldi'
p222
F0.00173137105270322
sS'kozel'
p223
F0.001384832118532338
sS'interpol'
p224
F0.007275403216979768
sS'hassan'
p225
F0.0013852733245827348
sS'adenan'
p226
F0.0013852733245827348
sS'roos'
p227
F0.0031171202388204887
sS'chunyong'
p228
I0
ssS'memali'
p229
(dp230
S'minh'
p231
F0.002771539704556129
sS'manmohan'
p232
F0.003464176366847496
sS'cocos'
p233
F0.0031180786387270116
sS'memali'
p234
F0.0
sS'rosmah'
p235
I0
sS'ali'
p236
F0.0034637351607970995
sS'esscom'
p237
F0.005197450866626272
sS'khalid'
p238
F0.009006320875109754
sS'balingian'
p239
F0.0031180786387270116
sS'reuters'
p240
F0.006807111892563646
sS'orion'
p241
F0.006235689122769002
sS'zahid'
p242
F0.004157753595780318
sS'rodzali'
p243
F0.003811191162552913
sS'tony'
p244
F0.004503366346580086
sS'klia'
p245
F0.004156371823088467
sS'perak'
p246
F0.0011224578778223707
sS'osama'
p247
F0.002771539704556129
sS'najib'
p248
F0.01004693073301306
sS'facebook'
p249
F0.004157288890673398
sS'zaharie'
p250
F0.011088066524467175
sS'pouria'
p251
F0.0034646319561682337
sS'jackson'
p252
F0.002771539704556129
sS'altantuyaa'
p253
I0
sS'sulaiman'
p254
I0
sS'fariq'
p255
F0.008661639291393982
sS'pakatan'
p256
F0.0034646319561682337
sS'amsa'
p257
F0.0034646319561682337
sS'mukah'
p258
F0.002771539704556129
sS'talbott'
p259
F0.002771539704556129
sS'andaman'
p260
F0.0041559306170380695
sS'yahya'
p261
F0.0034637351607970995
sS'melanau'
p262
F0.002771539704556129
sS'taib'
p263
F0.004850415798186268
sS'lrb'
p264
I0
sS'anwar'
p265
F0.010742573380699734
sS'hishammuddin'
p266
F0.011779283308587827
sS'khairul'
p267
F0.002771539704556129
sS'mca'
p268
F0.0031180786387270116
sS'xinhua'
p269
F0.004157753595780318
sS'ronald'
p270
F0.003810729684288719
sS'digitalglobe'
p271
F0.0031180786387270116
sS'taliban'
p272
F0.004504318070065783
sS'inmarsat'
p273
F0.005890073932603879
sS'delavar'
p274
F0.0034646319561682337
sS'matthews'
p275
F0.0034646319561682337
sS'mahathir'
p276
F0.0034646319561682337
sS'francis'
p277
F0.003811191162552913
sS'azharuddin'
p278
F0.004502469551208952
sS'phu'
p279
F0.0031176374326766145
sS'kota'
p280
F0.0035056042431457204
sS'qaeda'
p281
F0.0031180786387270116
sS'sabah'
p282
F0.018713149929267935
sS'nicobar'
p283
F0.002771539704556129
sS'boeing'
p284
F0.020092803765907996
sS'adams'
p285
F0.0031180786387270116
sS'umno'
p286
F0.004504318070065783
sS'icao'
p287
F0.002771539704556129
sS'angus'
p288
F0.0038107153010183787
sS'hurley'
p289
F0.002771539704556129
sS'chunjiang'
p290
I0
sS'hmas'
p291
F0.002771539704556129
sS'raaf'
p292
F0.00623715571486486
sS'ntsb'
p293
F0.0031180786387270116
sS'tho'
p294
F0.002771539704556129
sS'pham'
p295
F0.0031176374326766145
sS'karpal'
p296
F0.0034646319561682337
sS'petaling'
p297
F0.002771539704556129
sS'maraldi'
p298
F0.003464176366847496
sS'kozel'
p299
F0.0031176374326766145
sS'interpol'
p300
F0.009008208531124044
sS'hassan'
p301
F0.0031180786387270116
sS'adenan'
p302
F0.0031180786387270116
sS'roos'
p303
F0.004849925552964766
sS'chunyong'
p304
I0
ssS'rosmah'
p305
(dp306
S'minh'
p307
I0
sS'manmohan'
p308
I0
sS'cocos'
p309
I0
sS'memali'
p310
I0
sS'rosmah'
p311
I0
sS'ali'
p312
I0
sS'esscom'
p313
I0
sS'khalid'
p314
I0
sS'balingian'
p315
I0
sS'reuters'
p316
I0
sS'orion'
p317
I0
sS'zahid'
p318
I0
sS'rodzali'
p319
I0
sS'tony'
p320
I0
sS'klia'
p321
I0
sS'perak'
p322
I0
sS'osama'
p323
I0
sS'najib'
p324
I0
sS'facebook'
p325
I0
sS'zaharie'
p326
I0
sS'pouria'
p327
I0
sS'jackson'
p328
I0
sS'altantuyaa'
p329
I0
sS'sulaiman'
p330
I0
sS'fariq'
p331
I0
sS'pakatan'
p332
I0
sS'amsa'
p333
I0
sS'mukah'
p334
I0
sS'talbott'
p335
I0
sS'andaman'
p336
I0
sS'yahya'
p337
I0
sS'melanau'
p338
I0
sS'taib'
p339
I0
sS'lrb'
p340
I0
sS'anwar'
p341
I0
sS'hishammuddin'
p342
I0
sS'khairul'
p343
I0
sS'mca'
p344
I0
sS'xinhua'
p345
I0
sS'ronald'
p346
I0
sS'digitalglobe'
p347
I0
sS'taliban'
p348
I0
sS'inmarsat'
p349
I0
sS'delavar'
p350
I0
sS'matthews'
p351
I0
sS'mahathir'
p352
I0
sS'francis'
p353
I0
sS'azharuddin'
p354
I0
sS'phu'
p355
I0
sS'kota'
p356
I0
sS'qaeda'
p357
I0
sS'sabah'
p358
I0
sS'nicobar'
p359
I0
sS'boeing'
p360
I0
sS'adams'
p361
I0
sS'umno'
p362
I0
sS'icao'
p363
I0
sS'angus'
p364
I0
sS'hurley'
p365
I0
sS'chunjiang'
p366
I0
sS'hmas'
p367
I0
sS'raaf'
p368
I0
sS'ntsb'
p369
I0
sS'tho'
p370
I0
sS'pham'
p371
I0
sS'karpal'
p372
I0
sS'petaling'
p373
I0
sS'maraldi'
p374
I0
sS'kozel'
p375
I0
sS'interpol'
p376
I0
sS'hassan'
p377
I0
sS'adenan'
p378
I0
sS'roos'
p379
I0
sS'chunyong'
p380
I0
ssS'ali'
p381
(dp382
S'minh'
p383
F0.0013843909124819406
sS'manmohan'
p384
F0.0020770275747733083
sS'cocos'
p385
F0.001730929846652823
sS'memali'
p386
F0.0034637351607970995
sS'rosmah'
p387
I0
sS'ali'
p388
F0.0
sS'esscom'
p389
F0.003810302074552084
sS'khalid'
p390
F0.005576325194410359
sS'balingian'
p391
F0.001730929846652823
sS'reuters'
p392
F0.0062337992715905816
sS'orion'
p393
F0.004156344874453844
sS'zahid'
p394
F0.0027706048037061293
sS'rodzali'
p395
F0.0024240423704787245
sS'tony'
p396
F0.003116217554505898
sS'klia'
p397
F0.0020770275747733083
sS'perak'
p398
F0.003809339194117982
sS'osama'
p399
F0.0013843909124819406
sS'najib'
p400
F0.007153750313596778
sS'facebook'
p401
F0.0027701400985992095
sS'zaharie'
p402
F0.009700917732392986
sS'pouria'
p403
F0.0009538195281232442
sS'jackson'
p404
F0.0013843909124819406
sS'altantuyaa'
p405
I0
sS'sulaiman'
p406
I0
sS'fariq'
p407
F0.006582295043078824
sS'pakatan'
p408
F0.0009538195281232443
sS'amsa'
p409
F0.0020774831640940454
sS'mukah'
p410
F0.0013843909124819408
sS'talbott'
p411
F0.0013843909124819406
sS'andaman'
p412
F0.0027687818249638816
sS'yahya'
p413
F0.0020765863687229108
sS'melanau'
p414
F0.0013843909124819408
sS'taib'
p415
F0.0034632670061120795
sS'lrb'
p416
I0
sS'anwar'
p417
F0.007257233366563124
sS'hishammuddin'
p418
F0.009699939060272667
sS'khairul'
p419
F0.0013843909124819406
sS'mca'
p420
F0.0007771449746386689
sS'xinhua'
p421
F0.0027706048037061293
sS'ronald'
p422
F0.0012999172562437294
sS'digitalglobe'
p423
F0.001730929846652823
sS'taliban'
p424
F0.0031171692779915945
sS'inmarsat'
p425
F0.00450292514052969
sS'delavar'
p426
F0.0009538195281232442
sS'matthews'
p427
F0.0020774831640940454
sS'mahathir'
p428
F0.0009538195281232443
sS'francis'
p429
F0.0024240423704787245
sS'azharuddin'
p430
F0.0024231253028937933
sS'phu'
p431
F0.0017304886406024258
sS'kota'
p432
F0.0038088542167972654
sS'qaeda'
p433
F0.001730929846652823
sS'sabah'
p434
F0.017326001137193747
sS'nicobar'
p435
F0.0013843909124819406
sS'boeing'
p436
F0.01688979588162203
sS'adams'
p437
F0.001730929846652823
sS'umno'
p438
F0.0016828034741913473
sS'icao'
p439
F0.0013843909124819406
sS'angus'
p440
F0.0024235665089441904
sS'hurley'
p441
F0.0013843909124819406
sS'chunjiang'
p442
I0
sS'hmas'
p443
F0.0013843909124819406
sS'raaf'
p444
F0.0048500069227906725
sS'ntsb'
p445
F0.001730929846652823
sS'tho'
p446
F0.0013843909124819406
sS'pham'
p447
F0.0017304886406024258
sS'karpal'
p448
F0.0020774831640940454
sS'petaling'
p449
F0.0013843909124819408
sS'maraldi'
p450
F0.001384832118532338
sS'kozel'
p451
F0.0010382931843614554
sS'interpol'
p452
F0.004905619909623595
sS'hassan'
p453
F0.001730929846652823
sS'adenan'
p454
F0.001730929846652823
sS'roos'
p455
F0.0018167964326354527
sS'chunyong'
p456
I0
ssS'esscom'
p457
(dp458
S'minh'
p459
F0.00154941788122611
sS'manmohan'
p460
F0.003810743280602481
sS'cocos'
p461
F0.0034646455524819956
sS'memali'
p462
F0.005197450866626272
sS'rosmah'
p463
I0
sS'ali'
p464
F0.003810302074552084
sS'esscom'
p465
F0.0
sS'khalid'
p466
F0.009352887788864738
sS'balingian'
p467
F0.0034646455524819956
sS'reuters'
p468
F0.008659710433660725
sS'orion'
p469
F0.006582256036523987
sS'zahid'
p470
F0.004504320509535302
sS'rodzali'
p471
F0.004157758076307897
sS'tony'
p472
F0.00484993326033507
sS'klia'
p473
F0.0020020169694702434
sS'perak'
p474
F0.0055430548999471545
sS'osama'
p475
F0.0031181066183111135
sS'najib'
p476
F0.010393497646768045
sS'facebook'
p477
F0.004503855804428383
sS'zaharie'
p478
F0.01143463343822216
sS'pouria'
p479
F0.0038111988699232177
sS'jackson'
p480
F0.0031181066183111135
sS'altantuyaa'
p481
I0
sS'sulaiman'
p482
I0
sS'fariq'
p483
F0.009008206205148967
sS'pakatan'
p484
F0.0038111988699232177
sS'amsa'
p485
F0.0038111988699232177
sS'mukah'
p486
F0.0031181066183111135
sS'talbott'
p487
F0.0031181066183111135
sS'andaman'
p488
F0.004502497530793054
sS'yahya'
p489
F0.003810302074552084
sS'melanau'
p490
F0.0031181066183111135
sS'taib'
p491
F0.005196982711941252
sS'lrb'
p492
I0
sS'anwar'
p493
F0.011089140294454718
sS'hishammuddin'
p494
F0.012125850222342811
sS'khairul'
p495
F0.0031181066183111135
sS'mca'
p496
F0.0034646455524819956
sS'xinhua'
p497
F0.004504320509535302
sS'ronald'
p498
F0.004157296598043703
sS'digitalglobe'
p499
F0.0034646455524819956
sS'taliban'
p500
F0.004850884983820768
sS'inmarsat'
p501
F0.006236640846358862
sS'delavar'
p502
F0.0038111988699232177
sS'matthews'
p503
F0.0038111988699232177
sS'mahathir'
p504
F0.0038111988699232177
sS'francis'
p505
F0.00033979807359079447
sS'azharuddin'
p506
F0.004849036464963936
sS'phu'
p507
F0.0018955156093465953
sS'kota'
p508
F0.004666076641782405
sS'qaeda'
p509
F0.0034646455524819956
sS'sabah'
p510
F0.008629886823475588
sS'nicobar'
p511
F0.0031181066183111135
sS'boeing'
p512
F0.020439370679662977
sS'adams'
p513
F0.0034646455524819956
sS'umno'
p514
F0.004850884983820768
sS'icao'
p515
F0.0031181066183111135
sS'angus'
p516
F0.004157282214773363
sS'hurley'
p517
F0.0031181066183111135
sS'chunjiang'
p518
I0
sS'hmas'
p519
F0.0031181066183111135
sS'raaf'
p520
F0.006583722628619844
sS'ntsb'
p521
F0.0034646455524819956
sS'tho'
p522
F0.0031181066183111135
sS'pham'
p523
F0.0018955156093465953
sS'karpal'
p524
F0.0038111988699232177
sS'petaling'
p525
F0.0031181066183111135
sS'maraldi'
p526
F0.003810743280602481
sS'kozel'
p527
F0.0034642043464315985
sS'interpol'
p528
F0.009354775444879029
sS'hassan'
p529
F0.0034646455524819956
sS'adenan'
p530
F0.0034646455524819956
sS'roos'
p531
F0.00519649246671975
sS'chunyong'
p532
I0
ssS'khalid'
p533
(dp534
S'minh'
p535
F0.006926976626794596
sS'manmohan'
p536
F0.004544823610878289
sS'cocos'
p537
F0.0058882422363827425
sS'memali'
p538
F0.009006320875109754
sS'rosmah'
p539
I0
sS'ali'
p540
F0.005576325194410359
sS'esscom'
p541
F0.009352887788864738
sS'khalid'
p542
F0.0
sS'balingian'
p543
F0.0072735155609654776
sS'reuters'
p544
F0.004914132383559818
sS'orion'
p545
F0.008086689740609079
sS'zahid'
p546
F0.004239160409648984
sS'rodzali'
p547
F0.006716643063108019
sS'tony'
p548
F0.007535139632847751
sS'klia'
p549
F0.006927417832844993
sS'perak'
p550
F0.008398140036416483
sS'osama'
p551
F0.006234781170553625
sS'najib'
p552
F0.012159520766626322
sS'facebook'
p553
F0.007620530356670895
sS'zaharie'
p554
F0.01411983981073484
sS'pouria'
p555
F0.00497490304893729
sS'jackson'
p556
F0.006234781170553625
sS'altantuyaa'
p557
I0
sS'sulaiman'
p558
I0
sS'fariq'
p559
F0.011171095885377322
sS'pakatan'
p560
F0.0076200688784067005
sS'amsa'
p561
F0.0064964052424359
sS'mukah'
p562
F0.006926976626794596
sS'talbott'
p563
F0.006926976626794596
sS'andaman'
p564
F0.007619172083035566
sS'yahya'
p565
F0.005159355583679317
sS'melanau'
p566
F0.006926976626794596
sS'taib'
p567
F0.009005852720424735
sS'lrb'
p568
I0
sS'anwar'
p569
F0.014898010302938199
sS'hishammuddin'
p570
F0.005854367274910944
sS'khairul'
p571
F0.006926976626794596
sS'mca'
p572
F0.0072735155609654776
sS'xinhua'
p573
F0.008313190518018784
sS'ronald'
p574
F0.004628805320816805
sS'digitalglobe'
p575
F0.006319730688951324
sS'taliban'
p576
F0.007225389188504002
sS'inmarsat'
p577
F0.010045510854842345
sS'delavar'
p578
F0.00497490304893729
sS'matthews'
p579
F0.0076200688784067005
sS'mahathir'
p580
F0.0076200688784067005
sS'francis'
p581
F0.007966628084791379
sS'azharuddin'
p582
F0.004537590803998507
sS'phu'
p583
F0.00658087889867411
sS'kota'
p584
F0.008227776295139119
sS'qaeda'
p585
F0.006319730688951325
sS'sabah'
p586
F0.0228685868515064
sS'nicobar'
p587
F0.006926976626794596
sS'boeing'
p588
F0.01461409021888323
sS'adams'
p589
F0.0072735155609654776
sS'umno'
p590
F0.00865975499230425
sS'icao'
p591
F0.006926976626794596
sS'angus'
p592
F0.007012367351242691
sS'hurley'
p593
F0.005973191754780441
sS'chunjiang'
p594
I0
sS'hmas'
p595
F0.006234781170553625
sS'raaf'
p596
F0.010392592637103328
sS'ntsb'
p597
F0.0072735155609654776
sS'tho'
p598
F0.006234781170553625
sS'pham'
p599
F0.00658087889867411
sS'karpal'
p600
F0.0076200688784067005
sS'petaling'
p601
F0.006926976626794596
sS'maraldi'
p602
F0.006268961856701726
sS'kozel'
p603
F0.005922422922530844
sS'interpol'
p604
F0.006369542817698385
sS'hassan'
p605
F0.0072735155609654776
sS'adenan'
p606
F0.0072735155609654776
sS'roos'
p607
F0.006700926170804841
sS'chunyong'
p608
I0
ssS'balingian'
p609
(dp610
S'minh'
p611
F0.0010387343904118527
sS'manmohan'
p612
F0.00173137105270322
sS'cocos'
p613
F0.0013852733245827348
sS'memali'
p614
F0.0031180786387270116
sS'rosmah'
p615
I0
sS'ali'
p616
F0.001730929846652823
sS'esscom'
p617
F0.0034646455524819956
sS'khalid'
p618
F0.0072735155609654776
sS'balingian'
p619
F0.0
sS'reuters'
p620
F0.006580338205761463
sS'orion'
p621
F0.004502883808624726
sS'zahid'
p622
F0.002424948281636041
sS'rodzali'
p623
F0.002078385848408636
sS'tony'
p624
F0.0027705610324358096
sS'klia'
p625
F0.0024235665089441904
sS'perak'
p626
F0.003463682672047894
sS'osama'
p627
F0.0010387343904118527
sS'najib'
p628
F0.008314125418868784
sS'facebook'
p629
F0.0024244835765291216
sS'zaharie'
p630
F0.0093552612103229
sS'pouria'
p631
F0.0017318266420239571
sS'jackson'
p632
F0.0010387343904118527
sS'altantuyaa'
p633
I0
sS'sulaiman'
p634
I0
sS'fariq'
p635
F0.006928833977249705
sS'pakatan'
p636
F0.0017318266420239571
sS'amsa'
p637
F0.0017318266420239571
sS'mukah'
p638
F8.494951839769862e-05
sS'talbott'
p639
F0.0010387343904118527
sS'andaman'
p640
F0.0024231253028937933
sS'yahya'
p641
F0.001730929846652823
sS'melanau'
p642
F8.494951839769862e-05
sS'taib'
p643
F0.0021638256120278376
sS'lrb'
p644
I0
sS'anwar'
p645
F0.009009768066555457
sS'hishammuddin'
p646
F0.01004647799444355
sS'khairul'
p647
F0.0010387343904118527
sS'mca'
p648
F0.0013852733245827348
sS'xinhua'
p649
F0.002424948281636041
sS'ronald'
p650
F0.002077924370144442
sS'digitalglobe'
p651
F0.0013852733245827348
sS'taliban'
p652
F0.0027715127559215067
sS'inmarsat'
p653
F0.004157268618459602
sS'delavar'
p654
F0.0017318266420239571
sS'matthews'
p655
F0.0017318266420239571
sS'mahathir'
p656
F0.0017318266420239571
sS'francis'
p657
F0.002078385848408636
sS'azharuddin'
p658
F0.002769664237064676
sS'phu'
p659
F0.0013848321185323377
sS'kota'
p660
F0.0032016082789539935
sS'qaeda'
p661
F0.0013852733245827348
sS'sabah'
p662
F0.014190851245493713
sS'nicobar'
p663
F0.0010387343904118527
sS'boeing'
p664
F0.01835999845176372
sS'adams'
p665
F0.0013852733245827348
sS'umno'
p666
F0.0027715127559215067
sS'icao'
p667
F0.0010387343904118527
sS'angus'
p668
F0.0020779099868741026
sS'hurley'
p669
F0.0010387343904118527
sS'chunjiang'
p670
I0
sS'hmas'
p671
F0.0010387343904118527
sS'raaf'
p672
F0.004504350400720584
sS'ntsb'
p673
F0.0013852733245827348
sS'tho'
p674
F0.0010387343904118527
sS'pham'
p675
F0.0013848321185323377
sS'karpal'
p676
F0.0017318266420239571
sS'petaling'
p677
F8.494951839769862e-05
sS'maraldi'
p678
F0.00173137105270322
sS'kozel'
p679
F0.0013848321185323377
sS'interpol'
p680
F0.007275403216979768
sS'hassan'
p681
F0.0013852733245827348
sS'adenan'
p682
F0.0
sS'roos'
p683
F0.0031171202388204896
sS'chunyong'
p684
I0
ssS'reuters'
p685
(dp686
S'minh'
p687
F0.0062337992715905816
sS'manmohan'
p688
F0.004064164250254554
sS'cocos'
p689
F0.006580338205761463
sS'memali'
p690
F0.006807111892563646
sS'rosmah'
p691
I0
sS'ali'
p692
F0.0062337992715905816
sS'esscom'
p693
F0.008659710433660725
sS'khalid'
p694
F0.004914132383559818
sS'balingian'
p695
F0.006580338205761463
sS'reuters'
p696
F0.0
sS'orion'
p697
F0.00762047990897975
sS'zahid'
p698
F0.004529787575184624
sS'rodzali'
p699
F0.005364963917974126
sS'tony'
p700
F0.0062841380554673025
sS'klia'
p701
F0.005414861496425404
sS'perak'
p702
F0.005922822796259651
sS'osama'
p703
F0.0062337992715905816
sS'najib'
p704
F0.011305420406349999
sS'facebook'
p705
F0.006665763585693696
sS'zaharie'
p706
F0.013426662455530826
sS'pouria'
p707
F0.005803227887231885
sS'jackson'
p708
F0.0062337992715905816
sS'altantuyaa'
p709
I0
sS'sulaiman'
p710
I0
sS'fariq'
p711
F0.011170113986414279
sS'pakatan'
p712
F0.006926891523202686
sS'amsa'
p713
F0.00524540366505545
sS'mukah'
p714
F0.0062337992715905816
sS'talbott'
p715
F0.004983814249907221
sS'andaman'
p716
F0.005676009706148191
sS'yahya'
p717
F0.005676009706148191
sS'melanau'
p718
F0.0062337992715905816
sS'taib'
p719
F0.00831267536522072
sS'lrb'
p720
I0
sS'anwar'
p721
F0.014204832947734183
sS'hishammuddin'
p722
F0.008672006383239129
sS'khairul'
p723
F0.0062337992715905816
sS'mca'
p724
F0.006580338205761463
sS'xinhua'
p725
F0.00762001316281477
sS'ronald'
p726
F0.005195540743338216
sS'digitalglobe'
p727
F0.00562655333374731
sS'taliban'
p728
F0.007966577637100236
sS'inmarsat'
p729
F0.00935233349963833
sS'delavar'
p730
F0.005803227887231885
sS'matthews'
p731
F0.006926891523202686
sS'mahathir'
p732
F0.006926891523202686
sS'francis'
p733
F0.007273450729587365
sS'azharuddin'
p734
F0.004376568312063949
sS'phu'
p735
F0.005887701543470096
sS'kota'
p736
F0.006715185301985487
sS'qaeda'
p737
F0.006580338205761463
sS'sabah'
p738
F0.022175409496302385
sS'nicobar'
p739
F0.0062337992715905816
sS'boeing'
p740
F0.01136425524289583
sS'adams'
p741
F0.006580338205761463
sS'umno'
p742
F0.007966577637100236
sS'icao'
p743
F0.005280014399576427
sS'angus'
p744
F0.005887701543470096
sS'hurley'
p745
F0.0062337992715905816
sS'chunjiang'
p746
I0
sS'hmas'
p747
F0.005280014399576427
sS'raaf'
p748
F0.009699415281899312
sS'ntsb'
p749
F0.005195064881178728
sS'tho'
p750
F0.005541603815349611
sS'pham'
p751
F0.005887701543470096
sS'karpal'
p752
F0.006926891523202686
sS'petaling'
p753
F0.0062337992715905816
sS'maraldi'
p754
F0.006234240477640978
sS'kozel'
p755
F0.005887701543470097
sS'interpol'
p756
F0.01001661768450542
sS'hassan'
p757
F0.006580338205761463
sS'adenan'
p758
F0.006580338205761463
sS'roos'
p759
F0.007619989663758247
sS'chunyong'
p760
I0
ssS'orion'
p761
(dp762
S'minh'
p763
F0.004156344874453844
sS'manmohan'
p764
F0.0038951966647310576
sS'cocos'
p765
F0.004502883808624727
sS'memali'
p766
F0.006235689122769002
sS'rosmah'
p767
I0
sS'ali'
p768
F0.004156344874453844
sS'esscom'
p769
F0.006582256036523987
sS'khalid'
p770
F0.008086689740609079
sS'balingian'
p771
F0.004502883808624726
sS'reuters'
p772
F0.00762047990897975
sS'orion'
p773
F0.0
sS'zahid'
p774
F0.005542558765678033
sS'rodzali'
p775
F0.005195996332450627
sS'tony'
p776
F0.0028214103337478318
sS'klia'
p777
F0.005541176992986183
sS'perak'
p778
F0.006581293156089886
sS'osama'
p779
F0.004156344874453844
sS'najib'
p780
F0.010477951030896621
sS'facebook'
p781
F0.005542094060571113
sS'zaharie'
p782
F0.012472871694364888
sS'pouria'
p783
F0.0037257734900951476
sS'jackson'
p784
F0.004156344874453844
sS'altantuyaa'
p785
I0
sS'sulaiman'
p786
I0
sS'fariq'
p787
F0.010046444461291697
sS'pakatan'
p788
F0.004849437126065948
sS'amsa'
p789
F0.003167949267918714
sS'mukah'
p790
F0.004156344874453844
sS'talbott'
p791
F0.004156344874453844
sS'andaman'
p792
F0.004106369983135538
sS'yahya'
p793
F0.0048485403306948146
sS'melanau'
p794
F0.004156344874453844
sS'taib'
p795
F0.006235220968083984
sS'lrb'
p796
I0
sS'anwar'
p797
F0.012127378550597447
sS'hishammuddin'
p798
F0.011482600620338306
sS'khairul'
p799
F0.004156344874453844
sS'mca'
p800
F0.004502883808624727
sS'xinhua'
p801
F0.005542558765678033
sS'ronald'
p802
F0.0040718712182156325
sS'digitalglobe'
p803
F0.004502883808624727
sS'taliban'
p804
F0.005889123239963498
sS'inmarsat'
p805
F0.004892284880534889
sS'delavar'
p806
F0.0037257734900951476
sS'matthews'
p807
F0.004849437126065948
sS'mahathir'
p808
F0.004849437126065948
sS'francis'
p809
F0.005195996332450627
sS'azharuddin'
p810
F0.005195079264865697
sS'phu'
p811
F0.00450244260257433
sS'kota'
p812
F0.00727300363501014
sS'qaeda'
p813
F0.004502883808624727
sS'sabah'
p814
F0.02009795509916565
sS'nicobar'
p815
F0.004156344874453844
sS'boeing'
p816
F0.019831628607550583
sS'adams'
p817
F0.004502883808624727
sS'umno'
p818
F0.005889123239963498
sS'icao'
p819
F0.004156344874453844
sS'angus'
p820
F0.003810247146333359
sS'hurley'
p821
F0.004156344874453844
sS'chunjiang'
p822
I0
sS'hmas'
p823
F0.0032025600024396905
sS'raaf'
p824
F0.007621960884762575
sS'ntsb'
p825
F0.004502883808624727
sS'tho'
p826
F0.004156344874453844
sS'pham'
p827
F0.00450244260257433
sS'karpal'
p828
F0.004849437126065949
sS'petaling'
p829
F0.004156344874453844
sS'maraldi'
p830
F0.004156786080504241
sS'kozel'
p831
F0.003810247146333359
sS'interpol'
p832
F0.008631358743609652
sS'hassan'
p833
F0.004502883808624727
sS'adenan'
p834
F0.004502883808624726
sS'roos'
p835
F0.005542535266621511
sS'chunyong'
p836
I0
ssS'zahid'
p837
(dp838
S'minh'
p839
F0.002078409347465159
sS'manmohan'
p840
F0.0006781693000318934
sS'cocos'
p841
F0.002424948281636041
sS'memali'
p842
F0.004157753595780318
sS'rosmah'
p843
I0
sS'ali'
p844
F0.0027706048037061293
sS'esscom'
p845
F0.004504320509535302
sS'khalid'
p846
F0.004239160409648984
sS'balingian'
p847
F0.002424948281636041
sS'reuters'
p848
F0.004529787575184624
sS'orion'
p849
F0.005542558765678033
sS'zahid'
p850
F0.0
sS'rodzali'
p851
F0.0031180608054619426
sS'tony'
p852
F0.003810235989489116
sS'klia'
p853
F0.003463241465997497
sS'perak'
p854
F0.0045033576291012
sS'osama'
p855
F0.002078409347465159
sS'najib'
p856
F0.009353800375922091
sS'facebook'
p857
F0.003464158533582428
sS'zaharie'
p858
F0.010394936167376204
sS'pouria'
p859
F0.0027715015990772635
sS'jackson'
p860
F0.002078409347465159
sS'altantuyaa'
p861
I0
sS'sulaiman'
p862
I0
sS'fariq'
p863
F0.007968508934303013
sS'pakatan'
p864
F0.0027715015990772635
sS'amsa'
p865
F0.0027715015990772635
sS'mukah'
p866
F0.002078409347465159
sS'talbott'
p867
F0.002078409347465159
sS'andaman'
p868
F0.0034628002599470997
sS'yahya'
p869
F0.0014199533713218923
sS'melanau'
p870
F0.002078409347465159
sS'taib'
p871
F0.0041572854410952985
sS'lrb'
p872
I0
sS'anwar'
p873
F0.010049443023608764
sS'hishammuddin'
p874
F0.005463969099700254
sS'khairul'
p875
F0.002078409347465159
sS'mca'
p876
F0.002424948281636041
sS'xinhua'
p877
F0.0034646232386893474
sS'ronald'
p878
F0.0031175993271977485
sS'digitalglobe'
p879
F0.002424948281636041
sS'taliban'
p880
F0.0038111877129748126
sS'inmarsat'
p881
F0.005196943575512907
sS'delavar'
p882
F0.0027715015990772635
sS'matthews'
p883
F0.0027715015990772635
sS'mahathir'
p884
F0.0027715015990772635
sS'francis'
p885
F0.0031180608054619426
sS'azharuddin'
p886
F0.003809339194117982
sS'phu'
p887
F0.002424507075585644
sS'kota'
p888
F0.005195068108021454
sS'qaeda'
p889
F0.002424948281636041
sS'sabah'
p890
F0.018020019572176967
sS'nicobar'
p891
F0.002078409347465159
sS'boeing'
p892
F0.018049021976432787
sS'adams'
p893
F0.002424948281636041
sS'umno'
p894
F0.0038111877129748126
sS'icao'
p895
F0.002078409347465159
sS'angus'
p896
F0.0031175849439274085
sS'hurley'
p897
F0.002078409347465159
sS'chunjiang'
p898
I0
sS'hmas'
p899
F0.002078409347465159
sS'raaf'
p900
F0.00554402535777389
sS'ntsb'
p901
F0.002424948281636041
sS'tho'
p902
F0.002078409347465159
sS'pham'
p903
F0.002424507075585644
sS'karpal'
p904
F0.0027715015990772635
sS'petaling'
p905
F0.002078409347465159
sS'maraldi'
p906
F0.0027710460097565264
sS'kozel'
p907
F0.002424507075585644
sS'interpol'
p908
F0.008315078174033074
sS'hassan'
p909
F0.002424948281636041
sS'adenan'
p910
F0.002424948281636041
sS'roos'
p911
F0.004156795195873796
sS'chunyong'
p912
I0
ssS'rodzali'
p913
(dp914
S'minh'
p915
F0.001731846914237754
sS'manmohan'
p916
F0.002424483576529122
sS'cocos'
p917
F0.002078385848408636
sS'memali'
p918
F0.003811191162552913
sS'rosmah'
p919
I0
sS'ali'
p920
F0.0024240423704787245
sS'esscom'
p921
F0.004157758076307897
sS'khalid'
p922
F0.006716643063108019
sS'balingian'
p923
F0.002078385848408636
sS'reuters'
p924
F0.005364963917974126
sS'orion'
p925
F0.005195996332450627
sS'zahid'
p926
F0.0031180608054619426
sS'rodzali'
p927
F0.0
sS'tony'
p928
F0.003463673556261711
sS'klia'
p929
F0.0018666940110867317
sS'perak'
p930
F0.002248308384260556
sS'osama'
p931
F0.001731846914237754
sS'najib'
p932
F0.009007237942694686
sS'facebook'
p933
F0.0018676110786716629
sS'zaharie'
p934
F0.010048373734148802
sS'pouria'
p935
F0.002424939165849859
sS'jackson'
p936
F0.001731846914237754
sS'altantuyaa'
p937
I0
sS'sulaiman'
p938
I0
sS'fariq'
p939
F0.007621946501075607
sS'pakatan'
p940
F0.002424939165849859
sS'amsa'
p941
F0.002424939165849859
sS'mukah'
p942
F0.001731846914237754
sS'talbott'
p943
F0.001731846914237754
sS'andaman'
p944
F0.003116237826719695
sS'yahya'
p945
F0.0024240423704787245
sS'melanau'
p946
F0.001731846914237754
sS'taib'
p947
F0.003810723007867893
sS'lrb'
p948
I0
sS'anwar'
p949
F0.009702880590381359
sS'hishammuddin'
p950
F0.010739590518269452
sS'khairul'
p951
F0.001731846914237754
sS'mca'
p952
F0.002078385848408636
sS'xinhua'
p953
F0.0031180608054619426
sS'ronald'
p954
F0.0015210518722869834
sS'digitalglobe'
p955
F0.002078385848408636
sS'taliban'
p956
F0.0034646252797474082
sS'inmarsat'
p957
F0.004850381142285503
sS'delavar'
p958
F0.002424939165849859
sS'matthews'
p959
F0.002424939165849859
sS'mahathir'
p960
F0.002424939165849859
sS'francis'
p961
F0.002771498372234538
sS'azharuddin'
p962
F0.0022127917392072167
sS'phu'
p963
F0.0020779446423582395
sS'kota'
p964
F0.0024594032744523486
sS'qaeda'
p965
F0.002078385848408636
sS'sabah'
p966
F0.01767345713894956
sS'nicobar'
p967
F0.001731846914237754
sS'boeing'
p968
F0.015689163263595655
sS'adams'
p969
F0.002078385848408636
sS'umno'
p970
F0.0034646252797474082
sS'icao'
p971
F0.001731846914237754
sS'angus'
p972
F0.0027710225107000037
sS'hurley'
p973
F0.001731846914237754
sS'chunjiang'
p974
I0
sS'hmas'
p975
F0.001731846914237754
sS'raaf'
p976
F0.005197462924546485
sS'ntsb'
p977
F0.002078385848408636
sS'tho'
p978
F0.001731846914237754
sS'pham'
p979
F0.0020779446423582395
sS'karpal'
p980
F0.002424939165849859
sS'petaling'
p981
F0.001731846914237754
sS'maraldi'
p982
F0.0024244835765291216
sS'kozel'
p983
F0.0020779446423582395
sS'interpol'
p984
F0.00796851574080567
sS'hassan'
p985
F0.002078385848408636
sS'adenan'
p986
F0.002078385848408636
sS'roos'
p987
F0.0038102327626463907
sS'chunyong'
p988
I0
ssS'tony'
p989
(dp990
S'minh'
p991
F0.0024240220982649275
sS'manmohan'
p992
F0.001992995124585494
sS'cocos'
p993
F0.0027705610324358096
sS'memali'
p994
F0.004503366346580086
sS'rosmah'
p995
I0
sS'ali'
p996
F0.003116217554505898
sS'esscom'
p997
F0.00484993326033507
sS'khalid'
p998
F0.007535139632847751
sS'balingian'
p999
F0.0027705610324358096
sS'reuters'
p1000
F0.0062841380554673025
sS'orion'
p1001
F0.0028214103337478318
sS'zahid'
p1002
F0.003810235989489116
sS'rodzali'
p1003
F0.003463673556261711
sS'tony'
p1004
F0.0
sS'klia'
p1005
F0.0038088542167972654
sS'perak'
p1006
F0.0048489703799009685
sS'osama'
p1007
F0.0024240220982649275
sS'najib'
p1008
F0.008575749490751058
sS'facebook'
p1009
F0.0038097712843821966
sS'zaharie'
p1010
F0.010740548918175972
sS'pouria'
p1011
F0.003117114349877032
sS'jackson'
p1012
F0.0024240220982649275
sS'altantuyaa'
p1013
I0
sS'sulaiman'
p1014
I0
sS'fariq'
p1015
F0.00831412168510278
sS'pakatan'
p1016
F0.0031171143498770317
sS'amsa'
p1017
F0.0010387343904118527
sS'mukah'
p1018
F0.0024240220982649275
sS'talbott'
p1019
F0.0024240220982649275
sS'andaman'
p1020
F0.003808413010746868
sS'yahya'
p1021
F0.0024240220982649275
sS'melanau'
p1022
F0.0024240220982649275
sS'taib'
p1023
F0.0045028981918950675
sS'lrb'
p1024
I0
sS'anwar'
p1025
F0.010395055774408532
sS'hishammuddin'
p1026
F0.008661190286590474
sS'khairul'
p1027
F0.0024240220982649275
sS'mca'
p1028
F0.0027705610324358096
sS'xinhua'
p1029
F0.003810235989489116
sS'ronald'
p1030
F0.0034632120779975175
sS'digitalglobe'
p1031
F0.0027705610324358096
sS'taliban'
p1032
F0.004156800463774582
sS'inmarsat'
p1033
F0.0031599621043459725
sS'delavar'
p1034
F0.003117114349877032
sS'matthews'
p1035
F0.0031171143498770317
sS'mahathir'
p1036
F0.0031171143498770317
sS'francis'
p1037
F0.0034636735562617116
sS'azharuddin'
p1038
F0.00415495194491775
sS'phu'
p1039
F0.0027701198263854125
sS'kota'
p1040
F0.0055406808588212226
sS'qaeda'
p1041
F0.0027705610324358096
sS'sabah'
p1042
F0.018365632322976732
sS'nicobar'
p1043
F0.0024240220982649275
sS'boeing'
p1044
F0.017667837651631838
sS'adams'
p1045
F0.0027705610324358096
sS'umno'
p1046
F0.004156800463774582
sS'icao'
p1047
F0.0024240220982649275
sS'angus'
p1048
F0.0017817098365799423
sS'hurley'
p1049
F0.0024240220982649275
sS'chunjiang'
p1050
I0
sS'hmas'
p1051
F0.0013003584622941265
sS'raaf'
p1052
F0.004169693827046665
sS'ntsb'
p1053
F0.0027705610324358096
sS'tho'
p1054
F0.0024240220982649275
sS'pham'
p1055
F0.0027701198263854125
sS'karpal'
p1056
F0.003117114349877032
sS'petaling'
p1057
F0.0024240220982649275
sS'maraldi'
p1058
F0.002162873888542141
sS'kozel'
p1059
F0.0020779243701444425
sS'interpol'
p1060
F0.007410705903149482
sS'hassan'
p1061
F0.0027705610324358096
sS'adenan'
p1062
F0.0027705610324358096
sS'roos'
p1063
F0.004502407946673564
sS'chunyong'
p1064
I0
ssS'klia'
p1065
(dp1066
S'minh'
p1067
F0.001123242702759154
sS'manmohan'
p1068
F0.002769664237064676
sS'cocos'
p1069
F0.0024235665089441904
sS'memali'
p1070
F0.004156371823088467
sS'rosmah'
p1071
I0
sS'ali'
p1072
F0.0020770275747733083
sS'esscom'
p1073
F0.0020020169694702434
sS'khalid'
p1074
F0.006927417832844993
sS'balingian'
p1075
F0.0024235665089441904
sS'reuters'
p1076
F0.005414861496425404
sS'orion'
p1077
F0.005541176992986183
sS'zahid'
p1078
F0.003463241465997497
sS'rodzali'
p1079
F0.0018666940110867317
sS'tony'
p1080
F0.0038088542167972654
sS'klia'
p1081
F0.0
sS'perak'
p1082
F0.0035481909843951952
sS'osama'
p1083
F0.0020770275747733083
sS'najib'
p1084
F0.00866022314698927
sS'facebook'
p1085
F0.002770581304649607
sS'zaharie'
p1086
F0.010393554394684354
sS'pouria'
p1087
F0.002770119826385413
sS'jackson'
p1088
F0.0020770275747733083
sS'altantuyaa'
p1089
I0
sS'sulaiman'
p1090
I0
sS'fariq'
p1091
F0.007274931705370191
sS'pakatan'
p1092
F0.002770119826385413
sS'amsa'
p1093
F0.002770119826385413
sS'mukah'
p1094
F0.0020770275747733083
sS'talbott'
p1095
F0.001384832118532338
sS'andaman'
p1096
F0.0027692230310142783
sS'yahya'
p1097
F0.0027692230310142787
sS'melanau'
p1098
F0.0020770275747733083
sS'taib'
p1099
F0.004155903668403448
sS'lrb'
p1100
I0
sS'anwar'
p1101
F0.010048061250916913
sS'hishammuddin'
p1102
F0.010392575722564034
sS'khairul'
p1103
F0.0020770275747733083
sS'mca'
p1104
F0.0024235665089441904
sS'xinhua'
p1105
F0.003463241465997497
sS'ronald'
p1106
F0.002424022098264928
sS'digitalglobe'
p1107
F0.0024235665089441904
sS'taliban'
p1108
F0.003809805940282962
sS'inmarsat'
p1109
F0.005195561802821057
sS'delavar'
p1110
F0.002770119826385413
sS'matthews'
p1111
F0.002770119826385413
sS'mahathir'
p1112
F0.002770119826385413
sS'francis'
p1113
F0.0012081922211568529
sS'azharuddin'
p1114
F0.0024235665089441904
sS'phu'
p1115
F0.0014693404308796392
sS'kota'
p1116
F0.0024240423711036777
sS'qaeda'
p1117
F0.0024235665089441904
sS'sabah'
p1118
F0.014102154391398225
sS'nicobar'
p1119
F0.0020770275747733083
sS'boeing'
p1120
F0.015405896392553877
sS'adams'
p1121
F0.0024235665089441904
sS'umno'
p1122
F0.003809805940282962
sS'icao'
p1123
F0.0020770275747733083
sS'angus'
p1124
F0.0031162031712355575
sS'hurley'
p1125
F0.0020770275747733083
sS'chunjiang'
p1126
I0
sS'hmas'
p1127
F0.0020770275747733083
sS'raaf'
p1128
F0.00554264358508204
sS'ntsb'
p1129
F0.0024235665089441904
sS'tho'
p1130
F0.0020770275747733083
sS'pham'
p1131
F0.0014693404308796392
sS'karpal'
p1132
F0.002770119826385413
sS'petaling'
p1133
F0.0020770275747733083
sS'maraldi'
p1134
F0.0027696642370646754
sS'kozel'
p1135
F0.0024231253028937933
sS'interpol'
p1136
F0.00735991152932707
sS'hassan'
p1137
F0.0024235665089441904
sS'adenan'
p1138
F0.0024235665089441904
sS'roos'
p1139
F0.003201628551167791
sS'chunyong'
p1140
I0
ssS'perak'
p1141
(dp1142
S'minh'
p1143
F0.0031171437378770114
sS'manmohan'
p1144
F0.003809780400168379
sS'cocos'
p1145
F0.0034636826720478935
sS'memali'
p1146
F0.0011224578778223707
sS'rosmah'
p1147
I0
sS'ali'
p1148
F0.003809339194117982
sS'esscom'
p1149
F0.0055430548999471545
sS'khalid'
p1150
F0.008398140036416483
sS'balingian'
p1151
F0.003463682672047894
sS'reuters'
p1152
F0.005922822796259651
sS'orion'
p1153
F0.006581293156089886
sS'zahid'
p1154
F0.0045033576291012
sS'rodzali'
p1155
F0.002248308384260556
sS'tony'
p1156
F0.0048489703799009685
sS'klia'
p1157
F0.0035481909843951952
sS'perak'
p1158
F0.0
sS'osama'
p1159
F0.0031171437378770114
sS'najib'
p1160
F0.010392534766333943
sS'facebook'
p1161
F0.0035491080519801264
sS'zaharie'
p1162
F0.011433670557788059
sS'pouria'
p1163
F0.003810235989489116
sS'jackson'
p1164
F0.0031171437378770114
sS'altantuyaa'
p1165
I0
sS'sulaiman'
p1166
I0
sS'fariq'
p1167
F0.009007243324714864
sS'pakatan'
p1168
F0.003810235989489116
sS'amsa'
p1169
F0.003810235989489116
sS'mukah'
p1170
F0.0031171437378770114
sS'talbott'
p1171
F0.0031171437378770114
sS'andaman'
p1172
F0.004501534650358952
sS'yahya'
p1173
F0.003809339194117982
sS'melanau'
p1174
F0.0031171437378770114
sS'taib'
p1175
F0.005196019831507151
sS'lrb'
p1176
I0
sS'anwar'
p1177
F0.011088177414020616
sS'hishammuddin'
p1178
F0.012124887341908709
sS'khairul'
p1179
F0.0031171437378770114
sS'mca'
p1180
F0.0034636826720478935
sS'xinhua'
p1181
F0.0045033576291012
sS'ronald'
p1182
F0.0032025488455954473
sS'digitalglobe'
p1183
F0.0034636826720478935
sS'taliban'
p1184
F0.004849922103386666
sS'inmarsat'
p1185
F0.0062356779659247605
sS'delavar'
p1186
F0.003810235989489116
sS'matthews'
p1187
F0.003810235989489116
sS'mahathir'
p1188
F0.003810235989489116
sS'francis'
p1189
F0.004156795195873795
sS'azharuddin'
p1190
F0.0038942887125156807
sS'phu'
p1191
F0.0034632414659974964
sS'kota'
p1192
F0.0024594379305614388
sS'qaeda'
p1193
F0.0034636826720478935
sS'sabah'
p1194
F0.01905875396258882
sS'nicobar'
p1195
F0.0031171437378770114
sS'boeing'
p1196
F0.018190143187071916
sS'adams'
p1197
F0.0034636826720478935
sS'umno'
p1198
F0.004849922103386666
sS'icao'
p1199
F0.0031171437378770114
sS'angus'
p1200
F0.0041563193343392615
sS'hurley'
p1201
F0.0031171437378770114
sS'chunjiang'
p1202
I0
sS'hmas'
p1203
F0.0031171437378770114
sS'raaf'
p1204
F0.006582759748185743
sS'ntsb'
p1205
F0.003463682672047894
sS'tho'
p1206
F0.0031171437378770114
sS'pham'
p1207
F0.0034632414659974964
sS'karpal'
p1208
F0.0026865723535183152
sS'petaling'
p1209
F0.0031171437378770114
sS'maraldi'
p1210
F0.0038097804001683785
sS'kozel'
p1211
F0.0034632414659974964
sS'interpol'
p1212
F0.009353812564444928
sS'hassan'
p1213
F0.0034636826720478935
sS'adenan'
p1214
F0.003463682672047894
sS'roos'
p1215
F0.005195529586285648
sS'chunyong'
p1216
I0
ssS'osama'
p1217
(dp1218
S'minh'
p1219
F0.0006921954562409703
sS'manmohan'
p1220
F0.001384832118532338
sS'cocos'
p1221
F0.0010387343904118527
sS'memali'
p1222
F0.002771539704556129
sS'rosmah'
p1223
I0
sS'ali'
p1224
F0.0013843909124819406
sS'esscom'
p1225
F0.0031181066183111135
sS'khalid'
p1226
F0.006234781170553625
sS'balingian'
p1227
F0.0010387343904118527
sS'reuters'
p1228
F0.0062337992715905816
sS'orion'
p1229
F0.004156344874453844
sS'zahid'
p1230
F0.002078409347465159
sS'rodzali'
p1231
F0.001731846914237754
sS'tony'
p1232
F0.0024240220982649275
sS'klia'
p1233
F0.0020770275747733083
sS'perak'
p1234
F0.0031171437378770114
sS'osama'
p1235
F0.0
sS'najib'
p1236
F0.006616935052313665
sS'facebook'
p1237
F0.0020779446423582395
sS'zaharie'
p1238
F0.009008722276152016
sS'pouria'
p1239
F0.001385287707853075
sS'jackson'
p1240
F0.0
sS'altantuyaa'
p1241
I0
sS'sulaiman'
p1242
I0
sS'fariq'
p1243
F0.006582295043078824
sS'pakatan'
p1244
F0.001385287707853075
sS'amsa'
p1245
F0.001385287707853075
sS'mukah'
p1246
F0.0006921954562409703
sS'talbott'
p1247
F0.0006921954562409703
sS'andaman'
p1248
F0.0020765863687229108
sS'yahya'
p1249
F0.0013843909124819408
sS'melanau'
p1250
F0.0006921954562409703
sS'taib'
p1251
F0.0027710715498711095
sS'lrb'
p1252
I0
sS'anwar'
p1253
F0.008663229132384574
sS'hishammuddin'
p1254
F0.009699939060272667
sS'khairul'
p1255
F0.0006921954562409703
sS'mca'
p1256
F0.0010387343904118527
sS'xinhua'
p1257
F0.002078409347465159
sS'ronald'
p1258
F0.00173138543597356
sS'digitalglobe'
p1259
F0.0010387343904118527
sS'taliban'
p1260
F0.0009906080179503769
sS'inmarsat'
p1261
F0.003810729684288719
sS'delavar'
p1262
F0.001385287707853075
sS'matthews'
p1263
F0.001385287707853075
sS'mahathir'
p1264
F0.001385287707853075
sS'francis'
p1265
F0.001731846914237754
sS'azharuddin'
p1266
F0.0024231253028937937
sS'phu'
p1267
F0.0010382931843614554
sS'kota'
p1268
F0.003808854216797265
sS'qaeda'
p1269
F8.494951839769862e-05
sS'sabah'
p1270
F0.01663380568095278
sS'nicobar'
p1271
F0.0006921954562409703
sS'boeing'
p1272
F0.018013459517592836
sS'adams'
p1273
F0.0010387343904118527
sS'umno'
p1274
F0.0024249738217506246
sS'icao'
p1275
F0.0006921954562409703
sS'angus'
p1276
F0.00173137105270322
sS'hurley'
p1277
F0.0006921954562409703
sS'chunjiang'
p1278
I0
sS'hmas'
p1279
F0.0006921954562409703
sS'raaf'
p1280
F0.004157811466549702
sS'ntsb'
p1281
F0.0010387343904118527
sS'tho'
p1282
F0.0006921954562409703
sS'pham'
p1283
F0.0010382931843614554
sS'karpal'
p1284
F0.001385287707853075
sS'petaling'
p1285
F0.0006921954562409703
sS'maraldi'
p1286
F0.001384832118532338
sS'kozel'
p1287
F0.0010382931843614554
sS'interpol'
p1288
F0.006928864282808887
sS'hassan'
p1289
F0.0010387343904118527
sS'adenan'
p1290
F0.0010387343904118527
sS'roos'
p1291
F0.002770581304649607
sS'chunyong'
p1292
I0
ssS'najib'
p1293
(dp1294
S'minh'
p1295
F0.007967586484697902
sS'manmohan'
p1296
F0.007968027690748298
sS'cocos'
p1297
F0.008314125418868785
sS'memali'
p1298
F0.01004693073301306
sS'rosmah'
p1299
I0
sS'ali'
p1300
F0.007153750313596778
sS'esscom'
p1301
F0.010393497646768045
sS'khalid'
p1302
F0.012159520766626322
sS'balingian'
p1303
F0.008314125418868784
sS'reuters'
p1304
F0.011305420406349999
sS'orion'
p1305
F0.010477951030896621
sS'zahid'
p1306
F0.009353800375922091
sS'rodzali'
p1307
F0.009007237942694686
sS'tony'
p1308
F0.008575749490751058
sS'klia'
p1309
F0.00866022314698927
sS'perak'
p1310
F0.010392534766333943
sS'osama'
p1311
F0.006616935052313665
sS'najib'
p1312
F0.0
sS'facebook'
p1313
F0.009353335670815172
sS'zaharie'
p1314
F0.01143322935173766
sS'pouria'
p1315
F0.008660678736310006
sS'jackson'
p1316
F0.006616935052313665
sS'altantuyaa'
p1317
I0
sS'sulaiman'
p1318
I0
sS'fariq'
p1319
F0.010253654645604881
sS'pakatan'
p1320
F0.005607461172667033
sS'amsa'
p1321
F0.007537015100339206
sS'mukah'
p1322
F0.007967586484697902
sS'talbott'
p1323
F0.007275391028456931
sS'andaman'
p1324
F0.0064615548573558074
sS'yahya'
p1325
F0.008659781940938872
sS'melanau'
p1326
F0.007967586484697902
sS'taib'
p1327
F0.010046462578328043
sS'lrb'
p1328
I0
sS'anwar'
p1329
F0.0076603578951701026
sS'hishammuddin'
p1330
F0.012345408594821295
sS'khairul'
p1331
F0.006461554857355807
sS'mca'
p1332
F0.005931531196902082
sS'xinhua'
p1333
F0.008003148943537854
sS'ronald'
p1334
F0.009006776464430492
sS'digitalglobe'
p1335
F0.008314125418868785
sS'taliban'
p1336
F0.005911935818690822
sS'inmarsat'
p1337
F0.008032903149102676
sS'delavar'
p1338
F0.008660678736310006
sS'matthews'
p1339
F0.008660678736310008
sS'mahathir'
p1340
F0.005607461172667033
sS'francis'
p1341
F0.009007237942694686
sS'azharuddin'
p1342
F0.009006320875109754
sS'phu'
p1343
F0.008313684212818386
sS'kota'
p1344
F0.011084245245254197
sS'qaeda'
p1345
F0.006221248709144151
sS'sabah'
p1346
F0.023909196709409705
sS'nicobar'
p1347
F0.006461554857355807
sS'boeing'
p1348
F0.019155286850351422
sS'adams'
p1349
F0.008314125418868784
sS'umno'
p1350
F0.00521529655965919
sS'icao'
p1351
F0.007967586484697902
sS'angus'
p1352
F0.008052977209145998
sS'hurley'
p1353
F0.007967586484697902
sS'chunjiang'
p1354
I0
sS'hmas'
p1355
F0.007275391028456931
sS'raaf'
p1356
F0.011433202495006633
sS'ntsb'
p1357
F0.008314125418868784
sS'tho'
p1358
F0.007967586484697902
sS'pham'
p1359
F0.008313684212818386
sS'karpal'
p1360
F0.008660678736310008
sS'petaling'
p1361
F0.007967586484697902
sS'maraldi'
p1362
F0.00866022314698927
sS'kozel'
p1363
F0.008313684212818388
sS'interpol'
p1364
F0.014204255311265818
sS'hassan'
p1365
F0.008314125418868785
sS'adenan'
p1366
F0.008314125418868784
sS'roos'
p1367
F0.010045972333106539
sS'chunyong'
p1368
I0
ssS'facebook'
p1369
(dp1370
S'minh'
p1371
F0.0020779446423582395
sS'manmohan'
p1372
F0.002770581304649607
sS'cocos'
p1373
F0.0024244835765291216
sS'memali'
p1374
F0.004157288890673398
sS'rosmah'
p1375
I0
sS'ali'
p1376
F0.0027701400985992095
sS'esscom'
p1377
F0.004503855804428383
sS'khalid'
p1378
F0.007620530356670895
sS'balingian'
p1379
F0.0024244835765291216
sS'reuters'
p1380
F0.006665763585693696
sS'orion'
p1381
F0.005542094060571113
sS'zahid'
p1382
F0.003464158533582428
sS'rodzali'
p1383
F0.0018676110786716629
sS'tony'
p1384
F0.0038097712843821966
sS'klia'
p1385
F0.002770581304649607
sS'perak'
p1386
F0.0035491080519801264
sS'osama'
p1387
F0.0020779446423582395
sS'najib'
p1388
F0.009353335670815172
sS'facebook'
p1389
F0.0
sS'zaharie'
p1390
F0.005506422828033372
sS'pouria'
p1391
F0.002771036893970344
sS'jackson'
p1392
F0.0020779446423582395
sS'altantuyaa'
p1393
I0
sS'sulaiman'
p1394
I0
sS'fariq'
p1395
F0.00361982137321344
sS'pakatan'
p1396
F0.002771036893970344
sS'amsa'
p1397
F0.002771036893970344
sS'mukah'
p1398
F0.0020779446423582395
sS'talbott'
p1399
F0.0020779446423582395
sS'andaman'
p1400
F0.0034623355548401803
sS'yahya'
p1401
F0.0027701400985992095
sS'melanau'
p1402
F0.0020779446423582395
sS'taib'
p1403
F0.004156820735988378
sS'lrb'
p1404
I0
sS'anwar'
p1405
F0.010048978318501843
sS'hishammuddin'
p1406
F0.011085688246389936
sS'khairul'
p1407
F0.0020779446423582395
sS'mca'
p1408
F0.0024244835765291216
sS'xinhua'
p1409
F0.003464158533582428
sS'ronald'
p1410
F0.002424939165849859
sS'digitalglobe'
p1411
F0.0024244835765291216
sS'taliban'
p1412
F0.003810723007867893
sS'inmarsat'
p1413
F0.005196478870405988
sS'delavar'
p1414
F0.002771036893970344
sS'matthews'
p1415
F0.002771036893970344
sS'mahathir'
p1416
F0.002771036893970344
sS'francis'
p1417
F0.003117596100355023
sS'azharuddin'
p1418
F0.003116679032770092
sS'phu'
p1419
F0.0024240423704787245
sS'kota'
p1420
F0.004070939766943733
sS'qaeda'
p1421
F0.0024244835765291216
sS'sabah'
p1422
F0.018019554867070044
sS'nicobar'
p1423
F0.0020779446423582395
sS'boeing'
p1424
F0.015575740499568155
sS'adams'
p1425
F0.0024244835765291216
sS'umno'
p1426
F0.003810723007867893
sS'icao'
p1427
F0.0020779446423582395
sS'angus'
p1428
F0.0031171202388204896
sS'hurley'
p1429
F0.0020779446423582395
sS'chunjiang'
p1430
I0
sS'hmas'
p1431
F0.0020779446423582395
sS'raaf'
p1432
F0.00554356065266697
sS'ntsb'
p1433
F0.0024244835765291216
sS'tho'
p1434
F0.0020779446423582395
sS'pham'
p1435
F0.0024240423704787245
sS'karpal'
p1436
F0.002771036893970344
sS'petaling'
p1437
F0.0020779446423582395
sS'maraldi'
p1438
F0.002770581304649607
sS'kozel'
p1439
F0.0024240423704787245
sS'interpol'
p1440
F0.008314613468926157
sS'hassan'
p1441
F0.0024244835765291216
sS'adenan'
p1442
F0.0024244835765291216
sS'roos'
p1443
F0.001384832118532338
sS'chunyong'
p1444
I0
ssS'zaharie'
p1445
(dp1446
S'minh'
p1447
F0.009008722276152016
sS'manmohan'
p1448
F0.009701358938443384
sS'cocos'
p1449
F0.009355261210322898
sS'memali'
p1450
F0.011088066524467175
sS'rosmah'
p1451
I0
sS'ali'
p1452
F0.009700917732392986
sS'esscom'
p1453
F0.01143463343822216
sS'khalid'
p1454
F0.01411983981073484
sS'balingian'
p1455
F0.0093552612103229
sS'reuters'
p1456
F0.013426662455530826
sS'orion'
p1457
F0.012472871694364888
sS'zahid'
p1458
F0.010394936167376204
sS'rodzali'
p1459
F0.010048373734148802
sS'tony'
p1460
F0.010740548918175972
sS'klia'
p1461
F0.010393554394684354
sS'perak'
p1462
F0.011433670557788059
sS'osama'
p1463
F0.009008722276152016
sS'najib'
p1464
F0.01143322935173766
sS'facebook'
p1465
F0.005506422828033372
sS'zaharie'
p1466
F0.0
sS'pouria'
p1467
F0.00970181452776412
sS'jackson'
p1468
F0.009008722276152016
sS'altantuyaa'
p1469
I0
sS'sulaiman'
p1470
I0
sS'fariq'
p1471
F0.0007580551102768836
sS'pakatan'
p1472
F0.00970181452776412
sS'amsa'
p1473
F0.00970181452776412
sS'mukah'
p1474
F0.009008722276152016
sS'talbott'
p1475
F0.009008722276152016
sS'andaman'
p1476
F0.007763417925321061
sS'yahya'
p1477
F0.009700917732392986
sS'melanau'
p1478
F0.009008722276152016
sS'taib'
p1479
F0.011087598369782155
sS'lrb'
p1480
I0
sS'anwar'
p1481
F0.01697975595229562
sS'hishammuddin'
p1482
F0.01563387165821701
sS'khairul'
p1483
F0.007502690648809921
sS'mca'
p1484
F0.009355261210322898
sS'xinhua'
p1485
F0.010394936167376204
sS'ronald'
p1486
F0.010047912255884606
sS'digitalglobe'
p1487
F0.0076737733521756646
sS'taliban'
p1488
F0.010741500641661671
sS'inmarsat'
p1489
F0.00907403894055679
sS'delavar'
p1490
F0.00970181452776412
sS'matthews'
p1491
F0.00970181452776412
sS'mahathir'
p1492
F0.00970181452776412
sS'francis'
p1493
F0.010048373734148802
sS'azharuddin'
p1494
F0.009615988486834039
sS'phu'
p1495
F0.0082311563683017
sS'kota'
p1496
F0.012125381036708311
sS'qaeda'
p1497
F0.009355261210322898
sS'sabah'
p1498
F0.024950332500863825
sS'nicobar'
p1499
F0.007502690648809921
sS'boeing'
p1500
F0.01635964242933815
sS'adams'
p1501
F0.009355261210322898
sS'umno'
p1502
F0.010741500641661671
sS'icao'
p1503
F0.009008722276152016
sS'angus'
p1504
F0.010047897872614264
sS'hurley'
p1505
F0.009008722276152016
sS'chunjiang'
p1506
I0
sS'hmas'
p1507
F0.009008722276152016
sS'raaf'
p1508
F0.012474338286460747
sS'ntsb'
p1509
F0.0093552612103229
sS'tho'
p1510
F0.007885058640181216
sS'pham'
p1511
F0.0082311563683017
sS'karpal'
p1512
F0.00970181452776412
sS'petaling'
p1513
F0.009008722276152016
sS'maraldi'
p1514
F0.009701358938443384
sS'kozel'
p1515
F0.009354820004272502
sS'interpol'
p1516
F0.014121727466749131
sS'hassan'
p1517
F0.009355261210322898
sS'adenan'
p1518
F0.0093552612103229
sS'roos'
p1519
F0.006199059490324739
sS'chunyong'
p1520
I0
ssS'pouria'
p1521
(dp1522
S'minh'
p1523
F0.001385287707853075
sS'manmohan'
p1524
F0.0020779243701444425
sS'cocos'
p1525
F0.0017318266420239571
sS'memali'
p1526
F0.0034646319561682337
sS'rosmah'
p1527
I0
sS'ali'
p1528
F0.0009538195281232442
sS'esscom'
p1529
F0.0038111988699232177
sS'khalid'
p1530
F0.00497490304893729
sS'balingian'
p1531
F0.0017318266420239571
sS'reuters'
p1532
F0.005803227887231885
sS'orion'
p1533
F0.0037257734900951476
sS'zahid'
p1534
F0.0027715015990772635
sS'rodzali'
p1535
F0.002424939165849859
sS'tony'
p1536
F0.003117114349877032
sS'klia'
p1537
F0.002770119826385413
sS'perak'
p1538
F0.003810235989489116
sS'osama'
p1539
F0.001385287707853075
sS'najib'
p1540
F0.008660678736310006
sS'facebook'
p1541
F0.002771036893970344
sS'zaharie'
p1542
F0.00970181452776412
sS'pouria'
p1543
F0.0
sS'jackson'
p1544
F0.001385287707853075
sS'altantuyaa'
p1545
I0
sS'sulaiman'
p1546
I0
sS'fariq'
p1547
F0.007275387294690927
sS'pakatan'
p1548
F0.0020783799594651796
sS'amsa'
p1549
F0.0020783799594651796
sS'mukah'
p1550
F0.001385287707853075
sS'talbott'
p1551
F0.001385287707853075
sS'andaman'
p1552
F0.0027696786203350154
sS'yahya'
p1553
F0.0020774831640940454
sS'melanau'
p1554
F0.001385287707853075
sS'taib'
p1555
F0.003464163801483214
sS'lrb'
p1556
I0
sS'anwar'
p1557
F0.009356321383996679
sS'hishammuddin'
p1558
F0.010393031311884772
sS'khairul'
p1559
F0.001385287707853075
sS'mca'
p1560
F0.0017318266420239571
sS'xinhua'
p1561
F0.0027715015990772635
sS'ronald'
p1562
F0.00034609772812048515
sS'digitalglobe'
p1563
F0.0017318266420239571
sS'taliban'
p1564
F0.003118066073362729
sS'inmarsat'
p1565
F0.004503821935900824
sS'delavar'
p1566
F0.0
sS'matthews'
p1567
F0.0020783799594651796
sS'mahathir'
p1568
F0.0020783799594651796
sS'francis'
p1569
F0.002424939165849859
sS'azharuddin'
p1570
F0.001992553918535097
sS'phu'
p1571
F0.00173138543597356
sS'kota'
p1572
F0.00450194646840937
sS'qaeda'
p1573
F0.0017318266420239571
sS'sabah'
p1574
F0.01732689793256488
sS'nicobar'
p1575
F0.001385287707853075
sS'boeing'
p1576
F0.017582888133234137
sS'adams'
p1577
F0.0017318266420239571
sS'umno'
p1578
F0.003118066073362729
sS'icao'
p1579
F0.001385287707853075
sS'angus'
p1580
F0.0024244633043153246
sS'hurley'
p1581
F0.001385287707853075
sS'chunjiang'
p1582
I0
sS'hmas'
p1583
F0.001385287707853075
sS'raaf'
p1584
F0.004850903718161806
sS'ntsb'
p1585
F0.0017318266420239571
sS'tho'
p1586
F0.001385287707853075
sS'pham'
p1587
F0.00173138543597356
sS'karpal'
p1588
F0.0020783799594651796
sS'petaling'
p1589
F0.001385287707853075
sS'maraldi'
p1590
F0.0009542607341736413
sS'kozel'
p1591
F0.0006077218000027591
sS'interpol'
p1592
F0.003870069254192302
sS'hassan'
p1593
F0.0017318266420239571
sS'adenan'
p1594
F0.0017318266420239571
sS'roos'
p1595
F0.00234000992029091
sS'chunyong'
p1596
I0
ssS'jackson'
p1597
(dp1598
S'minh'
p1599
F0.0006921954562409703
sS'manmohan'
p1600
F0.001384832118532338
sS'cocos'
p1601
F0.0010387343904118527
sS'memali'
p1602
F0.002771539704556129
sS'rosmah'
p1603
I0
sS'ali'
p1604
F0.0013843909124819406
sS'esscom'
p1605
F0.0031181066183111135
sS'khalid'
p1606
F0.006234781170553625
sS'balingian'
p1607
F0.0010387343904118527
sS'reuters'
p1608
F0.0062337992715905816
sS'orion'
p1609
F0.004156344874453844
sS'zahid'
p1610
F0.002078409347465159
sS'rodzali'
p1611
F0.001731846914237754
sS'tony'
p1612
F0.0024240220982649275
sS'klia'
p1613
F0.0020770275747733083
sS'perak'
p1614
F0.0031171437378770114
sS'osama'
p1615
F0.0
sS'najib'
p1616
F0.006616935052313665
sS'facebook'
p1617
F0.0020779446423582395
sS'zaharie'
p1618
F0.009008722276152016
sS'pouria'
p1619
F0.001385287707853075
sS'jackson'
p1620
F0.0
sS'altantuyaa'
p1621
I0
sS'sulaiman'
p1622
I0
sS'fariq'
p1623
F0.006582295043078824
sS'pakatan'
p1624
F0.001385287707853075
sS'amsa'
p1625
F0.001385287707853075
sS'mukah'
p1626
F0.0006921954562409703
sS'talbott'
p1627
F0.0006921954562409703
sS'andaman'
p1628
F0.0020765863687229108
sS'yahya'
p1629
F0.0013843909124819408
sS'melanau'
p1630
F0.0006921954562409703
sS'taib'
p1631
F0.0027710715498711095
sS'lrb'
p1632
I0
sS'anwar'
p1633
F0.008663229132384574
sS'hishammuddin'
p1634
F0.009699939060272667
sS'khairul'
p1635
F0.0006921954562409703
sS'mca'
p1636
F0.0010387343904118527
sS'xinhua'
p1637
F0.002078409347465159
sS'ronald'
p1638
F0.00173138543597356
sS'digitalglobe'
p1639
F0.0010387343904118527
sS'taliban'
p1640
F0.0009906080179503769
sS'inmarsat'
p1641
F0.003810729684288719
sS'delavar'
p1642
F0.001385287707853075
sS'matthews'
p1643
F0.001385287707853075
sS'mahathir'
p1644
F0.001385287707853075
sS'francis'
p1645
F0.001731846914237754
sS'azharuddin'
p1646
F0.0024231253028937937
sS'phu'
p1647
F0.0010382931843614554
sS'kota'
p1648
F0.003808854216797265
sS'qaeda'
p1649
F8.494951839769862e-05
sS'sabah'
p1650
F0.01663380568095278
sS'nicobar'
p1651
F0.0006921954562409703
sS'boeing'
p1652
F0.018013459517592836
sS'adams'
p1653
F0.0010387343904118527
sS'umno'
p1654
F0.0024249738217506246
sS'icao'
p1655
F0.0006921954562409703
sS'angus'
p1656
F0.00173137105270322
sS'hurley'
p1657
F0.0006921954562409703
sS'chunjiang'
p1658
I0
sS'hmas'
p1659
F0.0006921954562409703
sS'raaf'
p1660
F0.004157811466549702
sS'ntsb'
p1661
F0.0010387343904118527
sS'tho'
p1662
F0.0006921954562409703
sS'pham'
p1663
F0.0010382931843614554
sS'karpal'
p1664
F0.001385287707853075
sS'petaling'
p1665
F0.0006921954562409703
sS'maraldi'
p1666
F0.001384832118532338
sS'kozel'
p1667
F0.0010382931843614554
sS'interpol'
p1668
F0.006928864282808887
sS'hassan'
p1669
F0.0010387343904118527
sS'adenan'
p1670
F0.0010387343904118527
sS'roos'
p1671
F0.002770581304649607
sS'chunyong'
p1672
I0
ssS'altantuyaa'
p1673
(dp1674
S'minh'
p1675
I0
sS'manmohan'
p1676
I0
sS'cocos'
p1677
I0
sS'memali'
p1678
I0
sS'rosmah'
p1679
I0
sS'ali'
p1680
I0
sS'esscom'
p1681
I0
sS'khalid'
p1682
I0
sS'balingian'
p1683
I0
sS'reuters'
p1684
I0
sS'orion'
p1685
I0
sS'zahid'
p1686
I0
sS'rodzali'
p1687
I0
sS'tony'
p1688
I0
sS'klia'
p1689
I0
sS'perak'
p1690
I0
sS'osama'
p1691
I0
sS'najib'
p1692
I0
sS'facebook'
p1693
I0
sS'zaharie'
p1694
I0
sS'pouria'
p1695
I0
sS'jackson'
p1696
I0
sS'altantuyaa'
p1697
I0
sS'sulaiman'
p1698
I0
sS'fariq'
p1699
I0
sS'pakatan'
p1700
I0
sS'amsa'
p1701
I0
sS'mukah'
p1702
I0
sS'talbott'
p1703
I0
sS'andaman'
p1704
I0
sS'yahya'
p1705
I0
sS'melanau'
p1706
I0
sS'taib'
p1707
I0
sS'lrb'
p1708
I0
sS'anwar'
p1709
I0
sS'hishammuddin'
p1710
I0
sS'khairul'
p1711
I0
sS'mca'
p1712
I0
sS'xinhua'
p1713
I0
sS'ronald'
p1714
I0
sS'digitalglobe'
p1715
I0
sS'taliban'
p1716
I0
sS'inmarsat'
p1717
I0
sS'delavar'
p1718
I0
sS'matthews'
p1719
I0
sS'mahathir'
p1720
I0
sS'francis'
p1721
I0
sS'azharuddin'
p1722
I0
sS'phu'
p1723
I0
sS'kota'
p1724
I0
sS'qaeda'
p1725
I0
sS'sabah'
p1726
I0
sS'nicobar'
p1727
I0
sS'boeing'
p1728
I0
sS'adams'
p1729
I0
sS'umno'
p1730
I0
sS'icao'
p1731
I0
sS'angus'
p1732
I0
sS'hurley'
p1733
I0
sS'chunjiang'
p1734
I0
sS'hmas'
p1735
I0
sS'raaf'
p1736
I0
sS'ntsb'
p1737
I0
sS'tho'
p1738
I0
sS'pham'
p1739
I0
sS'karpal'
p1740
I0
sS'petaling'
p1741
I0
sS'maraldi'
p1742
I0
sS'kozel'
p1743
I0
sS'interpol'
p1744
I0
sS'hassan'
p1745
I0
sS'adenan'
p1746
I0
sS'roos'
p1747
I0
sS'chunyong'
p1748
I0
ssS'sulaiman'
p1749
(dp1750
S'minh'
p1751
I0
sS'manmohan'
p1752
I0
sS'cocos'
p1753
I0
sS'memali'
p1754
I0
sS'rosmah'
p1755
I0
sS'ali'
p1756
I0
sS'esscom'
p1757
I0
sS'khalid'
p1758
I0
sS'balingian'
p1759
I0
sS'reuters'
p1760
I0
sS'orion'
p1761
I0
sS'zahid'
p1762
I0
sS'rodzali'
p1763
I0
sS'tony'
p1764
I0
sS'klia'
p1765
I0
sS'perak'
p1766
I0
sS'osama'
p1767
I0
sS'najib'
p1768
I0
sS'facebook'
p1769
I0
sS'zaharie'
p1770
I0
sS'pouria'
p1771
I0
sS'jackson'
p1772
I0
sS'altantuyaa'
p1773
I0
sS'sulaiman'
p1774
I0
sS'fariq'
p1775
I0
sS'pakatan'
p1776
I0
sS'amsa'
p1777
I0
sS'mukah'
p1778
I0
sS'talbott'
p1779
I0
sS'andaman'
p1780
I0
sS'yahya'
p1781
I0
sS'melanau'
p1782
I0
sS'taib'
p1783
I0
sS'lrb'
p1784
I0
sS'anwar'
p1785
I0
sS'hishammuddin'
p1786
I0
sS'khairul'
p1787
I0
sS'mca'
p1788
I0
sS'xinhua'
p1789
I0
sS'ronald'
p1790
I0
sS'digitalglobe'
p1791
I0
sS'taliban'
p1792
I0
sS'inmarsat'
p1793
I0
sS'delavar'
p1794
I0
sS'matthews'
p1795
I0
sS'mahathir'
p1796
I0
sS'francis'
p1797
I0
sS'azharuddin'
p1798
I0
sS'phu'
p1799
I0
sS'kota'
p1800
I0
sS'qaeda'
p1801
I0
sS'sabah'
p1802
I0
sS'nicobar'
p1803
I0
sS'boeing'
p1804
I0
sS'adams'
p1805
I0
sS'umno'
p1806
I0
sS'icao'
p1807
I0
sS'angus'
p1808
I0
sS'hurley'
p1809
I0
sS'chunjiang'
p1810
I0
sS'hmas'
p1811
I0
sS'raaf'
p1812
I0
sS'ntsb'
p1813
I0
sS'tho'
p1814
I0
sS'pham'
p1815
I0
sS'karpal'
p1816
I0
sS'petaling'
p1817
I0
sS'maraldi'
p1818
I0
sS'kozel'
p1819
I0
sS'interpol'
p1820
I0
sS'hassan'
p1821
I0
sS'adenan'
p1822
I0
sS'roos'
p1823
I0
sS'chunyong'
p1824
I0
ssS'fariq'
p1825
(dp1826
S'minh'
p1827
F0.006582295043078824
sS'manmohan'
p1828
F0.007274931705370191
sS'cocos'
p1829
F0.006928833977249705
sS'memali'
p1830
F0.008661639291393982
sS'rosmah'
p1831
I0
sS'ali'
p1832
F0.006582295043078824
sS'esscom'
p1833
F0.009008206205148967
sS'khalid'
p1834
F0.011171095885377322
sS'balingian'
p1835
F0.006928833977249705
sS'reuters'
p1836
F0.011170113986414279
sS'orion'
p1837
F0.010046444461291697
sS'zahid'
p1838
F0.007968508934303013
sS'rodzali'
p1839
F0.007621946501075607
sS'tony'
p1840
F0.00831412168510278
sS'klia'
p1841
F0.007274931705370191
sS'perak'
p1842
F0.009007243324714864
sS'osama'
p1843
F0.006582295043078824
sS'najib'
p1844
F0.010253654645604881
sS'facebook'
p1845
F0.00361982137321344
sS'zaharie'
p1846
F0.0007580551102768836
sS'pouria'
p1847
F0.007275387294690927
sS'jackson'
p1848
F0.006582295043078824
sS'altantuyaa'
p1849
I0
sS'sulaiman'
p1850
I0
sS'fariq'
p1851
F0.0
sS'pakatan'
p1852
F0.007275387294690928
sS'amsa'
p1853
F0.007275387294690927
sS'mukah'
p1854
F0.006582295043078824
sS'talbott'
p1855
F0.006582295043078824
sS'andaman'
p1856
F0.00576291606186325
sS'yahya'
p1857
F0.007274490499319794
sS'melanau'
p1858
F0.006582295043078824
sS'taib'
p1859
F0.008661171136708962
sS'lrb'
p1860
I0
sS'anwar'
p1861
F0.014553328719222429
sS'hishammuddin'
p1862
F0.012989356379256313
sS'khairul'
p1863
F0.005332310021395463
sS'mca'
p1864
F0.006928833977249705
sS'xinhua'
p1865
F0.007968508934303013
sS'ronald'
p1866
F0.007621485022811413
sS'digitalglobe'
p1867
F0.00554356065266697
sS'taliban'
p1868
F0.008315073408588477
sS'inmarsat'
p1869
F0.007311726870784871
sS'delavar'
p1870
F0.007275387294690927
sS'matthews'
p1871
F0.007275387294690928
sS'mahathir'
p1872
F0.007275387294690928
sS'francis'
p1873
F0.007621946501075607
sS'azharuddin'
p1874
F0.007359440017717492
sS'phu'
p1875
F0.005974607899185154
sS'kota'
p1876
F0.009006758347394148
sS'qaeda'
p1877
F0.006928833977249705
sS'sabah'
p1878
F0.022523905267790627
sS'nicobar'
p1879
F0.005332310021395463
sS'boeing'
p1880
F0.01450659612780543
sS'adams'
p1881
F0.006928833977249705
sS'umno'
p1882
F0.008315073408588477
sS'icao'
p1883
F0.006582295043078824
sS'angus'
p1884
F0.007621470639541073
sS'hurley'
p1885
F0.006582295043078824
sS'chunjiang'
p1886
I0
sS'hmas'
p1887
F0.006582295043078824
sS'raaf'
p1888
F0.010047911053387554
sS'ntsb'
p1889
F0.006928833977249705
sS'tho'
p1890
F0.00562851017106467
sS'pham'
p1891
F0.005974607899185154
sS'karpal'
p1892
F0.007275387294690928
sS'petaling'
p1893
F0.006582295043078824
sS'maraldi'
p1894
F0.00727493170537019
sS'kozel'
p1895
F0.006928392771199309
sS'interpol'
p1896
F0.01091139412561843
sS'hassan'
p1897
F0.006928833977249705
sS'adenan'
p1898
F0.006928833977249705
sS'roos'
p1899
F0.003358673163490653
sS'chunyong'
p1900
I0
ssS'pakatan'
p1901
(dp1902
S'minh'
p1903
F0.001385287707853075
sS'manmohan'
p1904
F0.0020779243701444425
sS'cocos'
p1905
F0.0017318266420239571
sS'memali'
p1906
F0.0034646319561682337
sS'rosmah'
p1907
I0
sS'ali'
p1908
F0.0009538195281232443
sS'esscom'
p1909
F0.0038111988699232177
sS'khalid'
p1910
F0.0076200688784067005
sS'balingian'
p1911
F0.0017318266420239571
sS'reuters'
p1912
F0.006926891523202686
sS'orion'
p1913
F0.004849437126065948
sS'zahid'
p1914
F0.0027715015990772635
sS'rodzali'
p1915
F0.002424939165849859
sS'tony'
p1916
F0.0031171143498770317
sS'klia'
p1917
F0.002770119826385413
sS'perak'
p1918
F0.003810235989489116
sS'osama'
p1919
F0.001385287707853075
sS'najib'
p1920
F0.005607461172667033
sS'facebook'
p1921
F0.002771036893970344
sS'zaharie'
p1922
F0.00970181452776412
sS'pouria'
p1923
F0.0020783799594651796
sS'jackson'
p1924
F0.001385287707853075
sS'altantuyaa'
p1925
I0
sS'sulaiman'
p1926
I0
sS'fariq'
p1927
F0.007275387294690928
sS'pakatan'
p1928
F0.0
sS'amsa'
p1929
F0.0020783799594651796
sS'mukah'
p1930
F0.001385287707853075
sS'talbott'
p1931
F0.001385287707853075
sS'andaman'
p1932
F0.0027696786203350154
sS'yahya'
p1933
F0.0020774831640940454
sS'melanau'
p1934
F0.001385287707853075
sS'taib'
p1935
F0.003464163801483214
sS'lrb'
p1936
I0
sS'anwar'
p1937
F0.004648253643678333
sS'hishammuddin'
p1938
F0.010393031311884772
sS'khairul'
p1939
F0.001385287707853075
sS'mca'
p1940
F5.0338783876722164e-05
sS'xinhua'
p1941
F0.0027715015990772635
sS'ronald'
p1942
F0.002424477687585665
sS'digitalglobe'
p1943
F0.0017318266420239571
sS'taliban'
p1944
F0.003118066073362729
sS'inmarsat'
p1945
F0.004503821935900824
sS'delavar'
p1946
F0.0020783799594651796
sS'matthews'
p1947
F0.0020783799594651796
sS'mahathir'
p1948
F0.0
sS'francis'
p1949
F0.002424939165849859
sS'azharuddin'
p1950
F0.0031162175545058983
sS'phu'
p1951
F0.00173138543597356
sS'kota'
p1952
F0.00450194646840937
sS'qaeda'
p1953
F0.0017318266420239571
sS'sabah'
p1954
F0.01732689793256488
sS'nicobar'
p1955
F0.001385287707853075
sS'boeing'
p1956
F0.018706551769204938
sS'adams'
p1957
F0.0017318266420239571
sS'umno'
p1958
F0.0002548485551930958
sS'icao'
p1959
F0.001385287707853075
sS'angus'
p1960
F0.0024244633043153246
sS'hurley'
p1961
F0.001385287707853075
sS'chunjiang'
p1962
I0
sS'hmas'
p1963
F0.001385287707853075
sS'raaf'
p1964
F0.004850903718161806
sS'ntsb'
p1965
F0.0017318266420239571
sS'tho'
p1966
F0.001385287707853075
sS'pham'
p1967
F0.00173138543597356
sS'karpal'
p1968
F0.0020783799594651796
sS'petaling'
p1969
F0.001385287707853075
sS'maraldi'
p1970
F0.002077924370144442
sS'kozel'
p1971
F0.00173138543597356
sS'interpol'
p1972
F0.007621956534420991
sS'hassan'
p1973
F0.0017318266420239571
sS'adenan'
p1974
F0.0017318266420239571
sS'roos'
p1975
F0.003463673556261711
sS'chunyong'
p1976
I0
ssS'amsa'
p1977
(dp1978
S'minh'
p1979
F0.001385287707853075
sS'manmohan'
p1980
F0.0009542607341736413
sS'cocos'
p1981
F0.0017318266420239571
sS'memali'
p1982
F0.0034646319561682337
sS'rosmah'
p1983
I0
sS'ali'
p1984
F0.0020774831640940454
sS'esscom'
p1985
F0.0038111988699232177
sS'khalid'
p1986
F0.0064964052424359
sS'balingian'
p1987
F0.0017318266420239571
sS'reuters'
p1988
F0.00524540366505545
sS'orion'
p1989
F0.003167949267918714
sS'zahid'
p1990
F0.0027715015990772635
sS'rodzali'
p1991
F0.002424939165849859
sS'tony'
p1992
F0.0010387343904118527
sS'klia'
p1993
F0.002770119826385413
sS'perak'
p1994
F0.003810235989489116
sS'osama'
p1995
F0.001385287707853075
sS'najib'
p1996
F0.007537015100339206
sS'facebook'
p1997
F0.002771036893970344
sS'zaharie'
p1998
F0.00970181452776412
sS'pouria'
p1999
F0.0020783799594651796
sS'jackson'
p2000
F0.001385287707853075
sS'altantuyaa'
p2001
I0
sS'sulaiman'
p2002
I0
sS'fariq'
p2003
F0.007275387294690927
sS'pakatan'
p2004
F0.0020783799594651796
sS'amsa'
p2005
F0.0
sS'mukah'
p2006
F0.001385287707853075
sS'talbott'
p2007
F0.001385287707853075
sS'andaman'
p2008
F0.0027696786203350154
sS'yahya'
p2009
F0.0020774831640940454
sS'melanau'
p2010
F0.001385287707853075
sS'taib'
p2011
F0.003464163801483214
sS'lrb'
p2012
I0
sS'anwar'
p2013
F0.009356321383996679
sS'hishammuddin'
p2014
F0.008314651352419593
sS'khairul'
p2015
F0.001385287707853075
sS'mca'
p2016
F0.0017318266420239571
sS'xinhua'
p2017
F0.0027715015990772635
sS'ronald'
p2018
F0.002424477687585665
sS'digitalglobe'
p2019
F0.0017318266420239571
sS'taliban'
p2020
F0.003118066073362729
sS'inmarsat'
p2021
F0.004503821935900824
sS'delavar'
p2022
F0.0020783799594651796
sS'matthews'
p2023
F0.0020783799594651796
sS'mahathir'
p2024
F0.0020783799594651796
sS'francis'
p2025
F0.002424939165849859
sS'azharuddin'
p2026
F0.003116217554505898
sS'phu'
p2027
F0.00173138543597356
sS'kota'
p2028
F0.00450194646840937
sS'qaeda'
p2029
F0.0017318266420239571
sS'sabah'
p2030
F0.01732689793256488
sS'nicobar'
p2031
F0.001385287707853075
sS'boeing'
p2032
F0.017582888133234137
sS'adams'
p2033
F0.0017318266420239571
sS'umno'
p2034
F0.003118066073362729
sS'icao'
p2035
F0.001385287707853075
sS'angus'
p2036
F0.0007429754461680896
sS'hurley'
p2037
F0.001385287707853075
sS'chunjiang'
p2038
I0
sS'hmas'
p2039
F0.0002616240718822739
sS'raaf'
p2040
F0.004850903718161806
sS'ntsb'
p2041
F0.0017318266420239571
sS'tho'
p2042
F0.001385287707853075
sS'pham'
p2043
F0.00173138543597356
sS'karpal'
p2044
F0.0020783799594651796
sS'petaling'
p2045
F0.001385287707853075
sS'maraldi'
p2046
F0.002077924370144442
sS'kozel'
p2047
F0.00173138543597356
sS'interpol'
p2048
F0.007621956534420991
sS'hassan'
p2049
F0.0017318266420239571
sS'adenan'
p2050
F0.0017318266420239571
sS'roos'
p2051
F0.003463673556261711
sS'chunyong'
p2052
I0
ssS'mukah'
p2053
(dp2054
S'minh'
p2055
F0.0006921954562409703
sS'manmohan'
p2056
F0.001384832118532338
sS'cocos'
p2057
F0.0010387343904118527
sS'memali'
p2058
F0.002771539704556129
sS'rosmah'
p2059
I0
sS'ali'
p2060
F0.0013843909124819408
sS'esscom'
p2061
F0.0031181066183111135
sS'khalid'
p2062
F0.006926976626794596
sS'balingian'
p2063
F8.494951839769862e-05
sS'reuters'
p2064
F0.0062337992715905816
sS'orion'
p2065
F0.004156344874453844
sS'zahid'
p2066
F0.002078409347465159
sS'rodzali'
p2067
F0.001731846914237754
sS'tony'
p2068
F0.0024240220982649275
sS'klia'
p2069
F0.0020770275747733083
sS'perak'
p2070
F0.0031171437378770114
sS'osama'
p2071
F0.0006921954562409703
sS'najib'
p2072
F0.007967586484697902
sS'facebook'
p2073
F0.0020779446423582395
sS'zaharie'
p2074
F0.009008722276152016
sS'pouria'
p2075
F0.001385287707853075
sS'jackson'
p2076
F0.0006921954562409703
sS'altantuyaa'
p2077
I0
sS'sulaiman'
p2078
I0
sS'fariq'
p2079
F0.006582295043078824
sS'pakatan'
p2080
F0.001385287707853075
sS'amsa'
p2081
F0.001385287707853075
sS'mukah'
p2082
F0.0
sS'talbott'
p2083
F0.0006921954562409703
sS'andaman'
p2084
F0.0020765863687229108
sS'yahya'
p2085
F0.0013843909124819408
sS'melanau'
p2086
F0.0
sS'taib'
p2087
F0.002078876093630139
sS'lrb'
p2088
I0
sS'anwar'
p2089
F0.008663229132384574
sS'hishammuddin'
p2090
F0.009699939060272667
sS'khairul'
p2091
F0.0006921954562409703
sS'mca'
p2092
F0.0010387343904118527
sS'xinhua'
p2093
F0.002078409347465159
sS'ronald'
p2094
F0.00173138543597356
sS'digitalglobe'
p2095
F0.0010387343904118527
sS'taliban'
p2096
F0.0024249738217506246
sS'inmarsat'
p2097
F0.003810729684288719
sS'delavar'
p2098
F0.001385287707853075
sS'matthews'
p2099
F0.001385287707853075
sS'mahathir'
p2100
F0.001385287707853075
sS'francis'
p2101
F0.001731846914237754
sS'azharuddin'
p2102
F0.0024231253028937937
sS'phu'
p2103
F0.0010382931843614554
sS'kota'
p2104
F0.003116658760556295
sS'qaeda'
p2105
F0.0010387343904118527
sS'sabah'
p2106
F0.014913861399425783
sS'nicobar'
p2107
F0.0006921954562409703
sS'boeing'
p2108
F0.018013459517592836
sS'adams'
p2109
F0.0010387343904118527
sS'umno'
p2110
F0.0024249738217506246
sS'icao'
p2111
F0.0006921954562409703
sS'angus'
p2112
F0.00173137105270322
sS'hurley'
p2113
F0.0006921954562409703
sS'chunjiang'
p2114
I0
sS'hmas'
p2115
F0.0006921954562409703
sS'raaf'
p2116
F0.004157811466549702
sS'ntsb'
p2117
F0.0010387343904118527
sS'tho'
p2118
F0.0006921954562409703
sS'pham'
p2119
F0.0010382931843614554
sS'karpal'
p2120
F0.001385287707853075
sS'petaling'
p2121
F0.0
sS'maraldi'
p2122
F0.001384832118532338
sS'kozel'
p2123
F0.0010382931843614554
sS'interpol'
p2124
F0.006928864282808886
sS'hassan'
p2125
F0.0010387343904118527
sS'adenan'
p2126
F8.494951839769862e-05
sS'roos'
p2127
F0.002770581304649607
sS'chunyong'
p2128
I0
ssS'talbott'
p2129
(dp2130
S'minh'
p2131
F0.0006921954562409703
sS'manmohan'
p2132
F0.001384832118532338
sS'cocos'
p2133
F0.0010387343904118527
sS'memali'
p2134
F0.002771539704556129
sS'rosmah'
p2135
I0
sS'ali'
p2136
F0.0013843909124819406
sS'esscom'
p2137
F0.0031181066183111135
sS'khalid'
p2138
F0.006926976626794596
sS'balingian'
p2139
F0.0010387343904118527
sS'reuters'
p2140
F0.004983814249907221
sS'orion'
p2141
F0.004156344874453844
sS'zahid'
p2142
F0.002078409347465159
sS'rodzali'
p2143
F0.001731846914237754
sS'tony'
p2144
F0.0024240220982649275
sS'klia'
p2145
F0.001384832118532338
sS'perak'
p2146
F0.0031171437378770114
sS'osama'
p2147
F0.0006921954562409703
sS'najib'
p2148
F0.007275391028456931
sS'facebook'
p2149
F0.0020779446423582395
sS'zaharie'
p2150
F0.009008722276152016
sS'pouria'
p2151
F0.001385287707853075
sS'jackson'
p2152
F0.0006921954562409703
sS'altantuyaa'
p2153
I0
sS'sulaiman'
p2154
I0
sS'fariq'
p2155
F0.006582295043078824
sS'pakatan'
p2156
F0.001385287707853075
sS'amsa'
p2157
F0.001385287707853075
sS'mukah'
p2158
F0.0006921954562409703
sS'talbott'
p2159
F0.0
sS'andaman'
p2160
F0.0013843909124819406
sS'yahya'
p2161
F0.0013843909124819408
sS'melanau'
p2162
F0.0006921954562409703
sS'taib'
p2163
F0.0027710715498711095
sS'lrb'
p2164
I0
sS'anwar'
p2165
F0.008663229132384574
sS'hishammuddin'
p2166
F0.009699939060272667
sS'khairul'
p2167
F0.0006921954562409703
sS'mca'
p2168
F0.0010387343904118527
sS'xinhua'
p2169
F0.002078409347465159
sS'ronald'
p2170
F0.00173138543597356
sS'digitalglobe'
p2171
F0.0010387343904118527
sS'taliban'
p2172
F0.0024249738217506246
sS'inmarsat'
p2173
F0.003810729684288719
sS'delavar'
p2174
F0.001385287707853075
sS'matthews'
p2175
F0.001385287707853075
sS'mahathir'
p2176
F0.001385287707853075
sS'francis'
p2177
F0.001731846914237754
sS'azharuddin'
p2178
F0.0017309298466528231
sS'phu'
p2179
F0.0010382931843614554
sS'kota'
p2180
F0.003808854216797265
sS'qaeda'
p2181
F0.0010387343904118527
sS'sabah'
p2182
F0.01663380568095278
sS'nicobar'
p2183
F0.0006921954562409703
sS'boeing'
p2184
F0.016579093713792584
sS'adams'
p2185
F0.0010387343904118527
sS'umno'
p2186
F0.0024249738217506246
sS'icao'
p2187
F0.0006921954562409703
sS'angus'
p2188
F0.00173137105270322
sS'hurley'
p2189
F0.0006921954562409703
sS'chunjiang'
p2190
I0
sS'hmas'
p2191
F0.0006921954562409703
sS'raaf'
p2192
F0.004157811466549702
sS'ntsb'
p2193
F0.0010387343904118527
sS'tho'
p2194
F0.0006921954562409703
sS'pham'
p2195
F0.0010382931843614554
sS'karpal'
p2196
F0.001385287707853075
sS'petaling'
p2197
F0.0006921954562409703
sS'maraldi'
p2198
F0.001384832118532338
sS'kozel'
p2199
F0.0010382931843614554
sS'interpol'
p2200
F0.006928864282808887
sS'hassan'
p2201
F0.0010387343904118527
sS'adenan'
p2202
F0.0010387343904118527
sS'roos'
p2203
F0.002770581304649607
sS'chunyong'
p2204
I0
ssS'andaman'
p2205
(dp2206
S'minh'
p2207
F0.0020765863687229108
sS'manmohan'
p2208
F0.0027692230310142783
sS'cocos'
p2209
F0.0024231253028937933
sS'memali'
p2210
F0.0041559306170380695
sS'rosmah'
p2211
I0
sS'ali'
p2212
F0.0027687818249638816
sS'esscom'
p2213
F0.004502497530793054
sS'khalid'
p2214
F0.007619172083035566
sS'balingian'
p2215
F0.0024231253028937933
sS'reuters'
p2216
F0.005676009706148191
sS'orion'
p2217
F0.004106369983135538
sS'zahid'
p2218
F0.0034628002599470997
sS'rodzali'
p2219
F0.003116237826719695
sS'tony'
p2220
F0.003808413010746868
sS'klia'
p2221
F0.0027692230310142783
sS'perak'
p2222
F0.004501534650358952
sS'osama'
p2223
F0.0020765863687229108
sS'najib'
p2224
F0.0064615548573558074
sS'facebook'
p2225
F0.0034623355548401803
sS'zaharie'
p2226
F0.007763417925321061
sS'pouria'
p2227
F0.0027696786203350154
sS'jackson'
p2228
F0.0020765863687229108
sS'altantuyaa'
p2229
I0
sS'sulaiman'
p2230
I0
sS'fariq'
p2231
F0.00576291606186325
sS'pakatan'
p2232
F0.0027696786203350154
sS'amsa'
p2233
F0.0027696786203350154
sS'mukah'
p2234
F0.0020765863687229108
sS'talbott'
p2235
F0.0013843909124819406
sS'andaman'
p2236
F0.0
sS'yahya'
p2237
F0.0027687818249638816
sS'melanau'
p2238
F0.0020765863687229108
sS'taib'
p2239
F0.00415546246235305
sS'lrb'
p2240
I0
sS'anwar'
p2241
F0.010047620044866515
sS'hishammuddin'
p2242
F0.009006881464769655
sS'khairul'
p2243
F0.0013843909124819406
sS'mca'
p2244
F0.0024231253028937933
sS'xinhua'
p2245
F0.0021121488275628627
sS'ronald'
p2246
F0.003115776348455501
sS'digitalglobe'
p2247
F0.0014693404308796392
sS'taliban'
p2248
F0.0038093647342325654
sS'inmarsat'
p2249
F0.004071456960799858
sS'delavar'
p2250
F0.0027696786203350154
sS'matthews'
p2251
F0.0027696786203350154
sS'mahathir'
p2252
F0.0027696786203350154
sS'francis'
p2253
F0.003116237826719695
sS'azharuddin'
p2254
F0.0024231253028937933
sS'phu'
p2255
F0.0017304886406024258
sS'kota'
p2256
F0.005193245129279206
sS'qaeda'
p2257
F0.0024231253028937933
sS'sabah'
p2258
F0.018018196593434715
sS'nicobar'
p2259
F0.0013843909124819406
sS'boeing'
p2260
F0.014451670314489325
sS'adams'
p2261
F0.0024231253028937933
sS'umno'
p2262
F0.0038093647342325654
sS'icao'
p2263
F0.0020765863687229108
sS'angus'
p2264
F0.003115761965185161
sS'hurley'
p2265
F0.0020765863687229108
sS'chunjiang'
p2266
I0
sS'hmas'
p2267
F0.0020765863687229108
sS'raaf'
p2268
F0.005542202379031642
sS'ntsb'
p2269
F0.0024231253028937933
sS'tho'
p2270
F0.0013843909124819406
sS'pham'
p2271
F0.0017304886406024258
sS'karpal'
p2272
F0.0027696786203350154
sS'petaling'
p2273
F0.0020765863687229108
sS'maraldi'
p2274
F0.0027692230310142783
sS'kozel'
p2275
F0.002422684096843396
sS'interpol'
p2276
F0.007621059739049856
sS'hassan'
p2277
F0.0024231253028937933
sS'adenan'
p2278
F0.0024231253028937933
sS'roos'
p2279
F0.004154972217131547
sS'chunyong'
p2280
I0
ssS'yahya'
p2281
(dp2282
S'minh'
p2283
F0.0013843909124819406
sS'manmohan'
p2284
F0.0011232427027591542
sS'cocos'
p2285
F0.0007771449746386689
sS'memali'
p2286
F0.0034637351607970995
sS'rosmah'
p2287
I0
sS'ali'
p2288
F0.0020765863687229108
sS'esscom'
p2289
F0.003810302074552084
sS'khalid'
p2290
F0.005159355583679317
sS'balingian'
p2291
F0.001730929846652823
sS'reuters'
p2292
F0.005676009706148191
sS'orion'
p2293
F0.0048485403306948146
sS'zahid'
p2294
F0.0014199533713218923
sS'rodzali'
p2295
F0.0024240423704787245
sS'tony'
p2296
F0.0024240220982649275
sS'klia'
p2297
F0.0027692230310142787
sS'perak'
p2298
F0.003809339194117982
sS'osama'
p2299
F0.0013843909124819408
sS'najib'
p2300
F0.008659781940938872
sS'facebook'
p2301
F0.0027701400985992095
sS'zaharie'
p2302
F0.009700917732392986
sS'pouria'
p2303
F0.0020774831640940454
sS'jackson'
p2304
F0.0013843909124819408
sS'altantuyaa'
p2305
I0
sS'sulaiman'
p2306
I0
sS'fariq'
p2307
F0.007274490499319794
sS'pakatan'
p2308
F0.0020774831640940454
sS'amsa'
p2309
F0.0020774831640940454
sS'mukah'
p2310
F0.0013843909124819408
sS'talbott'
p2311
F0.0013843909124819408
sS'andaman'
p2312
F0.0027687818249638816
sS'yahya'
p2313
F0.0
sS'melanau'
p2314
F0.0013843909124819408
sS'taib'
p2315
F0.0034632670061120795
sS'lrb'
p2316
I0
sS'anwar'
p2317
F0.009355424588625545
sS'hishammuddin'
p2318
F0.006876908043102617
sS'khairul'
p2319
F0.0013843909124819408
sS'mca'
p2320
F0.001730929846652823
sS'xinhua'
p2321
F0.002770604803706129
sS'ronald'
p2322
F0.0024235808922145304
sS'digitalglobe'
p2323
F0.001730929846652823
sS'taliban'
p2324
F0.0031171692779915945
sS'inmarsat'
p2325
F0.00450292514052969
sS'delavar'
p2326
F0.0020774831640940454
sS'matthews'
p2327
F0.0020774831640940454
sS'mahathir'
p2328
F0.0020774831640940454
sS'francis'
p2329
F0.0024240423704787245
sS'azharuddin'
p2330
F0.0021615358871206096
sS'phu'
p2331
F0.0017304886406024258
sS'kota'
p2332
F0.004501049673038235
sS'qaeda'
p2333
F0.001730929846652823
sS'sabah'
p2334
F0.017326001137193747
sS'nicobar'
p2335
F0.0013843909124819408
sS'boeing'
p2336
F0.015709023213194444
sS'adams'
p2337
F0.001730929846652823
sS'umno'
p2338
F0.0031171692779915945
sS'icao'
p2339
F0.0013843909124819408
sS'angus'
p2340
F0.0024235665089441904
sS'hurley'
p2341
F0.0006921954562409703
sS'chunjiang'
p2342
I0
sS'hmas'
p2343
F0.0013843909124819406
sS'raaf'
p2344
F0.003130062641263678
sS'ntsb'
p2345
F0.001730929846652823
sS'tho'
p2346
F0.0013843909124819406
sS'pham'
p2347
F0.0017304886406024258
sS'karpal'
p2348
F0.0020774831640940454
sS'petaling'
p2349
F0.0013843909124819408
sS'maraldi'
p2350
F0.0011232427027591542
sS'kozel'
p2351
F0.0010382931843614554
sS'interpol'
p2352
F0.006371074717366496
sS'hassan'
p2353
F0.001730929846652823
sS'adenan'
p2354
F0.001730929846652823
sS'roos'
p2355
F0.003462776760890577
sS'chunyong'
p2356
I0
ssS'melanau'
p2357
(dp2358
S'minh'
p2359
F0.0006921954562409703
sS'manmohan'
p2360
F0.001384832118532338
sS'cocos'
p2361
F0.0010387343904118527
sS'memali'
p2362
F0.002771539704556129
sS'rosmah'
p2363
I0
sS'ali'
p2364
F0.0013843909124819408
sS'esscom'
p2365
F0.0031181066183111135
sS'khalid'
p2366
F0.006926976626794596
sS'balingian'
p2367
F8.494951839769862e-05
sS'reuters'
p2368
F0.0062337992715905816
sS'orion'
p2369
F0.004156344874453844
sS'zahid'
p2370
F0.002078409347465159
sS'rodzali'
p2371
F0.001731846914237754
sS'tony'
p2372
F0.0024240220982649275
sS'klia'
p2373
F0.0020770275747733083
sS'perak'
p2374
F0.0031171437378770114
sS'osama'
p2375
F0.0006921954562409703
sS'najib'
p2376
F0.007967586484697902
sS'facebook'
p2377
F0.0020779446423582395
sS'zaharie'
p2378
F0.009008722276152016
sS'pouria'
p2379
F0.001385287707853075
sS'jackson'
p2380
F0.0006921954562409703
sS'altantuyaa'
p2381
I0
sS'sulaiman'
p2382
I0
sS'fariq'
p2383
F0.006582295043078824
sS'pakatan'
p2384
F0.001385287707853075
sS'amsa'
p2385
F0.001385287707853075
sS'mukah'
p2386
F0.0
sS'talbott'
p2387
F0.0006921954562409703
sS'andaman'
p2388
F0.0020765863687229108
sS'yahya'
p2389
F0.0013843909124819408
sS'melanau'
p2390
F0.0
sS'taib'
p2391
F0.002078876093630139
sS'lrb'
p2392
I0
sS'anwar'
p2393
F0.008663229132384574
sS'hishammuddin'
p2394
F0.009699939060272667
sS'khairul'
p2395
F0.0006921954562409703
sS'mca'
p2396
F0.0010387343904118527
sS'xinhua'
p2397
F0.002078409347465159
sS'ronald'
p2398
F0.00173138543597356
sS'digitalglobe'
p2399
F0.0010387343904118527
sS'taliban'
p2400
F0.0024249738217506246
sS'inmarsat'
p2401
F0.003810729684288719
sS'delavar'
p2402
F0.001385287707853075
sS'matthews'
p2403
F0.001385287707853075
sS'mahathir'
p2404
F0.001385287707853075
sS'francis'
p2405
F0.001731846914237754
sS'azharuddin'
p2406
F0.0024231253028937937
sS'phu'
p2407
F0.0010382931843614554
sS'kota'
p2408
F0.003116658760556295
sS'qaeda'
p2409
F0.0010387343904118527
sS'sabah'
p2410
F0.014913861399425783
sS'nicobar'
p2411
F0.0006921954562409703
sS'boeing'
p2412
F0.018013459517592836
sS'adams'
p2413
F0.0010387343904118527
sS'umno'
p2414
F0.0024249738217506246
sS'icao'
p2415
F0.0006921954562409703
sS'angus'
p2416
F0.00173137105270322
sS'hurley'
p2417
F0.0006921954562409703
sS'chunjiang'
p2418
I0
sS'hmas'
p2419
F0.0006921954562409703
sS'raaf'
p2420
F0.004157811466549702
sS'ntsb'
p2421
F0.0010387343904118527
sS'tho'
p2422
F0.0006921954562409703
sS'pham'
p2423
F0.0010382931843614554
sS'karpal'
p2424
F0.001385287707853075
sS'petaling'
p2425
F0.0
sS'maraldi'
p2426
F0.001384832118532338
sS'kozel'
p2427
F0.0010382931843614554
sS'interpol'
p2428
F0.006928864282808886
sS'hassan'
p2429
F0.0010387343904118527
sS'adenan'
p2430
F8.494951839769862e-05
sS'roos'
p2431
F0.002770581304649607
sS'chunyong'
p2432
I0
ssS'taib'
p2433
(dp2434
S'minh'
p2435
F0.0027710715498711095
sS'manmohan'
p2436
F0.0034637082121624775
sS'cocos'
p2437
F0.003117610484041992
sS'memali'
p2438
F0.004850415798186268
sS'rosmah'
p2439
I0
sS'ali'
p2440
F0.0034632670061120795
sS'esscom'
p2441
F0.005196982711941252
sS'khalid'
p2442
F0.009005852720424735
sS'balingian'
p2443
F0.0021638256120278376
sS'reuters'
p2444
F0.00831267536522072
sS'orion'
p2445
F0.006235220968083984
sS'zahid'
p2446
F0.0041572854410952985
sS'rodzali'
p2447
F0.003810723007867893
sS'tony'
p2448
F0.0045028981918950675
sS'klia'
p2449
F0.004155903668403448
sS'perak'
p2450
F0.005196019831507151
sS'osama'
p2451
F0.0027710715498711095
sS'najib'
p2452
F0.010046462578328043
sS'facebook'
p2453
F0.004156820735988378
sS'zaharie'
p2454
F0.011087598369782155
sS'pouria'
p2455
F0.003464163801483214
sS'jackson'
p2456
F0.0027710715498711095
sS'altantuyaa'
p2457
I0
sS'sulaiman'
p2458
I0
sS'fariq'
p2459
F0.008661171136708962
sS'pakatan'
p2460
F0.003464163801483214
sS'amsa'
p2461
F0.003464163801483214
sS'mukah'
p2462
F0.002078876093630139
sS'talbott'
p2463
F0.0027710715498711095
sS'andaman'
p2464
F0.00415546246235305
sS'yahya'
p2465
F0.0034632670061120795
sS'melanau'
p2466
F0.002078876093630139
sS'taib'
p2467
F0.0
sS'lrb'
p2468
I0
sS'anwar'
p2469
F0.010742105226014712
sS'hishammuddin'
p2470
F0.011778815153902805
sS'khairul'
p2471
F0.0027710715498711095
sS'mca'
p2472
F0.003117610484041992
sS'xinhua'
p2473
F0.0041572854410952985
sS'ronald'
p2474
F0.003810261529603699
sS'digitalglobe'
p2475
F0.003117610484041992
sS'taliban'
p2476
F0.004503849915380763
sS'inmarsat'
p2477
F0.005889605777918858
sS'delavar'
p2478
F0.003464163801483214
sS'matthews'
p2479
F0.003464163801483214
sS'mahathir'
p2480
F0.003464163801483214
sS'francis'
p2481
F0.003810723007867893
sS'azharuddin'
p2482
F0.004502001396523933
sS'phu'
p2483
F0.0031171692779915945
sS'kota'
p2484
F0.0029472702420294756
sS'qaeda'
p2485
F0.003117610484041992
sS'sabah'
p2486
F0.016992737493055923
sS'nicobar'
p2487
F0.0027710715498711095
sS'boeing'
p2488
F0.02009233561122297
sS'adams'
p2489
F0.003117610484041992
sS'umno'
p2490
F0.004503849915380763
sS'icao'
p2491
F0.0027710715498711095
sS'angus'
p2492
F0.0038102471463333596
sS'hurley'
p2493
F0.0027710715498711095
sS'chunjiang'
p2494
I0
sS'hmas'
p2495
F0.0027710715498711095
sS'raaf'
p2496
F0.00623668756017984
sS'ntsb'
p2497
F0.003117610484041992
sS'tho'
p2498
F0.0027710715498711095
sS'pham'
p2499
F0.0031171692779915945
sS'karpal'
p2500
F0.003464163801483214
sS'petaling'
p2501
F0.002078876093630139
sS'maraldi'
p2502
F0.0034637082121624775
sS'kozel'
p2503
F0.0031171692779915945
sS'interpol'
p2504
F0.009007740376439026
sS'hassan'
p2505
F0.003117610484041992
sS'adenan'
p2506
F0.0021638256120278376
sS'roos'
p2507
F0.004849457398279747
sS'chunyong'
p2508
I0
ssS'lrb'
p2509
(dp2510
S'minh'
p2511
I0
sS'manmohan'
p2512
I0
sS'cocos'
p2513
I0
sS'memali'
p2514
I0
sS'rosmah'
p2515
I0
sS'ali'
p2516
I0
sS'esscom'
p2517
I0
sS'khalid'
p2518
I0
sS'balingian'
p2519
I0
sS'reuters'
p2520
I0
sS'orion'
p2521
I0
sS'zahid'
p2522
I0
sS'rodzali'
p2523
I0
sS'tony'
p2524
I0
sS'klia'
p2525
I0
sS'perak'
p2526
I0
sS'osama'
p2527
I0
sS'najib'
p2528
I0
sS'facebook'
p2529
I0
sS'zaharie'
p2530
I0
sS'pouria'
p2531
I0
sS'jackson'
p2532
I0
sS'altantuyaa'
p2533
I0
sS'sulaiman'
p2534
I0
sS'fariq'
p2535
I0
sS'pakatan'
p2536
I0
sS'amsa'
p2537
I0
sS'mukah'
p2538
I0
sS'talbott'
p2539
I0
sS'andaman'
p2540
I0
sS'yahya'
p2541
I0
sS'melanau'
p2542
I0
sS'taib'
p2543
I0
sS'lrb'
p2544
I0
sS'anwar'
p2545
I0
sS'hishammuddin'
p2546
I0
sS'khairul'
p2547
I0
sS'mca'
p2548
I0
sS'xinhua'
p2549
I0
sS'ronald'
p2550
I0
sS'digitalglobe'
p2551
I0
sS'taliban'
p2552
I0
sS'inmarsat'
p2553
I0
sS'delavar'
p2554
I0
sS'matthews'
p2555
I0
sS'mahathir'
p2556
I0
sS'francis'
p2557
I0
sS'azharuddin'
p2558
I0
sS'phu'
p2559
I0
sS'kota'
p2560
I0
sS'qaeda'
p2561
I0
sS'sabah'
p2562
I0
sS'nicobar'
p2563
I0
sS'boeing'
p2564
I0
sS'adams'
p2565
I0
sS'umno'
p2566
I0
sS'icao'
p2567
I0
sS'angus'
p2568
I0
sS'hurley'
p2569
I0
sS'chunjiang'
p2570
I0
sS'hmas'
p2571
I0
sS'raaf'
p2572
I0
sS'ntsb'
p2573
I0
sS'tho'
p2574
I0
sS'pham'
p2575
I0
sS'karpal'
p2576
I0
sS'petaling'
p2577
I0
sS'maraldi'
p2578
I0
sS'kozel'
p2579
I0
sS'interpol'
p2580
I0
sS'hassan'
p2581
I0
sS'adenan'
p2582
I0
sS'roos'
p2583
I0
sS'chunyong'
p2584
I0
ssS'anwar'
p2585
(dp2586
S'minh'
p2587
F0.008663229132384574
sS'manmohan'
p2588
F0.009355865794675943
sS'cocos'
p2589
F0.009009768066555457
sS'memali'
p2590
F0.010742573380699734
sS'rosmah'
p2591
I0
sS'ali'
p2592
F0.007257233366563124
sS'esscom'
p2593
F0.011089140294454718
sS'khalid'
p2594
F0.014898010302938199
sS'balingian'
p2595
F0.009009768066555457
sS'reuters'
p2596
F0.014204832947734183
sS'orion'
p2597
F0.012127378550597447
sS'zahid'
p2598
F0.010049443023608764
sS'rodzali'
p2599
F0.009702880590381359
sS'tony'
p2600
F0.010395055774408532
sS'klia'
p2601
F0.010048061250916913
sS'perak'
p2602
F0.011088177414020616
sS'osama'
p2603
F0.008663229132384574
sS'najib'
p2604
F0.0076603578951701026
sS'facebook'
p2605
F0.010048978318501843
sS'zaharie'
p2606
F0.01697975595229562
sS'pouria'
p2607
F0.009356321383996679
sS'jackson'
p2608
F0.008663229132384574
sS'altantuyaa'
p2609
I0
sS'sulaiman'
p2610
I0
sS'fariq'
p2611
F0.014553328719222429
sS'pakatan'
p2612
F0.004648253643678333
sS'amsa'
p2613
F0.009356321383996679
sS'mukah'
p2614
F0.008663229132384574
sS'talbott'
p2615
F0.008663229132384574
sS'andaman'
p2616
F0.010047620044866515
sS'yahya'
p2617
F0.009355424588625545
sS'melanau'
p2618
F0.008663229132384574
sS'taib'
p2619
F0.010742105226014712
sS'lrb'
p2620
I0
sS'anwar'
p2621
F0.0
sS'hishammuddin'
p2622
F0.017670972736416272
sS'khairul'
p2623
F0.008663229132384574
sS'mca'
p2624
F0.005485451497735314
sS'xinhua'
p2625
F0.010049443023608764
sS'ronald'
p2626
F0.009702419112117163
sS'digitalglobe'
p2627
F0.009009768066555457
sS'taliban'
p2628
F0.010396007497894228
sS'inmarsat'
p2629
F0.011781763360432322
sS'delavar'
p2630
F0.009356321383996679
sS'matthews'
p2631
F0.009356321383996679
sS'mahathir'
p2632
F0.004648253643678333
sS'francis'
p2633
F0.009702880590381359
sS'azharuddin'
p2634
F0.010394158979037397
sS'phu'
p2635
F0.009009326860505061
sS'kota'
p2636
F0.011779887892940868
sS'qaeda'
p2637
F0.009009768066555457
sS'sabah'
p2638
F0.02460483935709638
sS'nicobar'
p2639
F0.008663229132384574
sS'boeing'
p2640
F0.025984493193736434
sS'adams'
p2641
F0.009009768066555457
sS'umno'
p2642
F0.002891171355326362
sS'icao'
p2643
F0.008663229132384574
sS'angus'
p2644
F0.009702404728846824
sS'hurley'
p2645
F0.008663229132384574
sS'chunjiang'
p2646
I0
sS'hmas'
p2647
F0.008663229132384574
sS'raaf'
p2648
F0.012128845142693308
sS'ntsb'
p2649
F0.009009768066555457
sS'tho'
p2650
F0.008663229132384574
sS'pham'
p2651
F0.009009326860505061
sS'karpal'
p2652
F0.009356321383996679
sS'petaling'
p2653
F0.008663229132384574
sS'maraldi'
p2654
F0.009355865794675941
sS'kozel'
p2655
F0.009009326860505058
sS'interpol'
p2656
F0.014899897958952493
sS'hassan'
p2657
F0.009009768066555457
sS'adenan'
p2658
F0.009009768066555457
sS'roos'
p2659
F0.01074161498079321
sS'chunyong'
p2660
I0
ssS'hishammuddin'
p2661
(dp2662
S'minh'
p2663
F0.009699939060272667
sS'manmohan'
p2664
F0.006191244131546788
sS'cocos'
p2665
F0.008661204669860815
sS'memali'
p2666
F0.011779283308587827
sS'rosmah'
p2667
I0
sS'ali'
p2668
F0.009699939060272667
sS'esscom'
p2669
F0.012125850222342811
sS'khalid'
p2670
F0.005854367274910944
sS'balingian'
p2671
F0.01004647799444355
sS'reuters'
p2672
F0.008672006383239129
sS'orion'
p2673
F0.011482600620338306
sS'zahid'
p2674
F0.005463969099700254
sS'rodzali'
p2675
F0.010739590518269452
sS'tony'
p2676
F0.008661190286590474
sS'klia'
p2677
F0.010392575722564034
sS'perak'
p2678
F0.012124887341908709
sS'osama'
p2679
F0.009699939060272667
sS'najib'
p2680
F0.012345408594821295
sS'facebook'
p2681
F0.011085688246389936
sS'zaharie'
p2682
F0.01563387165821701
sS'pouria'
p2683
F0.010393031311884772
sS'jackson'
p2684
F0.009699939060272667
sS'altantuyaa'
p2685
I0
sS'sulaiman'
p2686
I0
sS'fariq'
p2687
F0.012989356379256313
sS'pakatan'
p2688
F0.010393031311884772
sS'amsa'
p2689
F0.008314651352419593
sS'mukah'
p2690
F0.009699939060272667
sS'talbott'
p2691
F0.009699939060272667
sS'andaman'
p2692
F0.009006881464769655
sS'yahya'
p2693
F0.006876908043102617
sS'melanau'
p2694
F0.009699939060272667
sS'taib'
p2695
F0.011778815153902805
sS'lrb'
p2696
I0
sS'anwar'
p2697
F0.017670972736416272
sS'hishammuddin'
p2698
F0.0
sS'khairul'
p2699
F0.008746154188258514
sS'mca'
p2700
F0.01004647799444355
sS'xinhua'
p2701
F0.008440987122027444
sS'ronald'
p2702
F0.010739129040005256
sS'digitalglobe'
p2703
F0.01004647799444355
sS'taliban'
p2704
F0.011432717425782321
sS'inmarsat'
p2705
F0.01113698543017318
sS'delavar'
p2706
F0.010393031311884772
sS'matthews'
p2707
F0.010393031311884772
sS'mahathir'
p2708
F0.010393031311884772
sS'francis'
p2709
F0.010739590518269452
sS'azharuddin'
p2710
F0.010045595582342755
sS'phu'
p2711
F0.010046036788393152
sS'kota'
p2712
F0.012124402364587991
sS'qaeda'
p2713
F0.01004647799444355
sS'sabah'
p2714
F0.02564154928498447
sS'nicobar'
p2715
F0.008746154188258514
sS'boeing'
p2716
F0.01649499240649378
sS'adams'
p2717
F0.01004647799444355
sS'umno'
p2718
F0.011432717425782321
sS'icao'
p2719
F0.009699939060272667
sS'angus'
p2720
F0.009057626798587683
sS'hurley'
p2721
F0.008746154188258512
sS'chunjiang'
p2722
I0
sS'hmas'
p2723
F0.008576275424301866
sS'raaf'
p2724
F0.011445610789054405
sS'ntsb'
p2725
F0.01004647799444355
sS'tho'
p2726
F0.009699939060272667
sS'pham'
p2727
F0.010046036788393152
sS'karpal'
p2728
F0.010393031311884772
sS'petaling'
p2729
F0.009699939060272667
sS'maraldi'
p2730
F0.00943879085054988
sS'kozel'
p2731
F0.009353841332152182
sS'interpol'
p2732
F0.013732837993143069
sS'hassan'
p2733
F0.01004647799444355
sS'adenan'
p2734
F0.01004647799444355
sS'roos'
p2735
F0.010824540036667149
sS'chunyong'
p2736
I0
ssS'khairul'
p2737
(dp2738
S'minh'
p2739
F0.0006921954562409703
sS'manmohan'
p2740
F0.001384832118532338
sS'cocos'
p2741
F0.0010387343904118527
sS'memali'
p2742
F0.002771539704556129
sS'rosmah'
p2743
I0
sS'ali'
p2744
F0.0013843909124819406
sS'esscom'
p2745
F0.0031181066183111135
sS'khalid'
p2746
F0.006926976626794596
sS'balingian'
p2747
F0.0010387343904118527
sS'reuters'
p2748
F0.0062337992715905816
sS'orion'
p2749
F0.004156344874453844
sS'zahid'
p2750
F0.002078409347465159
sS'rodzali'
p2751
F0.001731846914237754
sS'tony'
p2752
F0.0024240220982649275
sS'klia'
p2753
F0.0020770275747733083
sS'perak'
p2754
F0.0031171437378770114
sS'osama'
p2755
F0.0006921954562409703
sS'najib'
p2756
F0.006461554857355807
sS'facebook'
p2757
F0.0020779446423582395
sS'zaharie'
p2758
F0.007502690648809921
sS'pouria'
p2759
F0.001385287707853075
sS'jackson'
p2760
F0.0006921954562409703
sS'altantuyaa'
p2761
I0
sS'sulaiman'
p2762
I0
sS'fariq'
p2763
F0.005332310021395463
sS'pakatan'
p2764
F0.001385287707853075
sS'amsa'
p2765
F0.001385287707853075
sS'mukah'
p2766
F0.0006921954562409703
sS'talbott'
p2767
F0.0006921954562409703
sS'andaman'
p2768
F0.0013843909124819406
sS'yahya'
p2769
F0.0013843909124819408
sS'melanau'
p2770
F0.0006921954562409703
sS'taib'
p2771
F0.0027710715498711095
sS'lrb'
p2772
I0
sS'anwar'
p2773
F0.008663229132384574
sS'hishammuddin'
p2774
F0.008746154188258514
sS'khairul'
p2775
F0.0
sS'mca'
p2776
F0.0010387343904118527
sS'xinhua'
p2777
F0.002078409347465159
sS'ronald'
p2778
F0.00173138543597356
sS'digitalglobe'
p2779
F0.0010387343904118527
sS'taliban'
p2780
F0.0024249738217506246
sS'inmarsat'
p2781
F0.002687066048317918
sS'delavar'
p2782
F0.001385287707853075
sS'matthews'
p2783
F0.001385287707853075
sS'mahathir'
p2784
F0.001385287707853075
sS'francis'
p2785
F0.001731846914237754
sS'azharuddin'
p2786
F0.0024231253028937937
sS'phu'
p2787
F0.0010382931843614554
sS'kota'
p2788
F0.003808854216797265
sS'qaeda'
p2789
F0.0010387343904118527
sS'sabah'
p2790
F0.01663380568095278
sS'nicobar'
p2791
F0.0
sS'boeing'
p2792
F0.01688979588162203
sS'adams'
p2793
F0.0010387343904118527
sS'umno'
p2794
F0.0024249738217506246
sS'icao'
p2795
F0.0006921954562409703
sS'angus'
p2796
F0.00173137105270322
sS'hurley'
p2797
F0.0006921954562409703
sS'chunjiang'
p2798
I0
sS'hmas'
p2799
F0.0006921954562409703
sS'raaf'
p2800
F0.004157811466549702
sS'ntsb'
p2801
F0.0010387343904118527
sS'tho'
p2802
F0.0006921954562409703
sS'pham'
p2803
F0.0010382931843614554
sS'karpal'
p2804
F0.001385287707853075
sS'petaling'
p2805
F0.0006921954562409703
sS'maraldi'
p2806
F0.001384832118532338
sS'kozel'
p2807
F0.0010382931843614554
sS'interpol'
p2808
F0.006928864282808887
sS'hassan'
p2809
F0.0010387343904118527
sS'adenan'
p2810
F0.0010387343904118527
sS'roos'
p2811
F0.002770581304649607
sS'chunyong'
p2812
I0
ssS'mca'
p2813
(dp2814
S'minh'
p2815
F0.0010387343904118527
sS'manmohan'
p2816
F0.00173137105270322
sS'cocos'
p2817
F0.0013852733245827348
sS'memali'
p2818
F0.0031180786387270116
sS'rosmah'
p2819
I0
sS'ali'
p2820
F0.0007771449746386689
sS'esscom'
p2821
F0.0034646455524819956
sS'khalid'
p2822
F0.0072735155609654776
sS'balingian'
p2823
F0.0013852733245827348
sS'reuters'
p2824
F0.006580338205761463
sS'orion'
p2825
F0.004502883808624727
sS'zahid'
p2826
F0.002424948281636041
sS'rodzali'
p2827
F0.002078385848408636
sS'tony'
p2828
F0.0027705610324358096
sS'klia'
p2829
F0.0024235665089441904
sS'perak'
p2830
F0.0034636826720478935
sS'osama'
p2831
F0.0010387343904118527
sS'najib'
p2832
F0.005931531196902082
sS'facebook'
p2833
F0.0024244835765291216
sS'zaharie'
p2834
F0.009355261210322898
sS'pouria'
p2835
F0.0017318266420239571
sS'jackson'
p2836
F0.0010387343904118527
sS'altantuyaa'
p2837
I0
sS'sulaiman'
p2838
I0
sS'fariq'
p2839
F0.006928833977249705
sS'pakatan'
p2840
F5.0338783876722164e-05
sS'amsa'
p2841
F0.0017318266420239571
sS'mukah'
p2842
F0.0010387343904118527
sS'talbott'
p2843
F0.0010387343904118527
sS'andaman'
p2844
F0.0024231253028937933
sS'yahya'
p2845
F0.001730929846652823
sS'melanau'
p2846
F0.0010387343904118527
sS'taib'
p2847
F0.003117610484041992
sS'lrb'
p2848
I0
sS'anwar'
p2849
F0.005485451497735314
sS'hishammuddin'
p2850
F0.01004647799444355
sS'khairul'
p2851
F0.0010387343904118527
sS'mca'
p2852
F0.0
sS'xinhua'
p2853
F0.002424948281636041
sS'ronald'
p2854
F0.002077924370144442
sS'digitalglobe'
p2855
F0.0013852733245827348
sS'taliban'
p2856
F0.0027715127559215067
sS'inmarsat'
p2857
F0.004157268618459601
sS'delavar'
p2858
F0.0017318266420239571
sS'matthews'
p2859
F0.0017318266420239571
sS'mahathir'
p2860
F5.0338783876722164e-05
sS'francis'
p2861
F0.002078385848408636
sS'azharuddin'
p2862
F0.002769664237064676
sS'phu'
p2863
F0.0013848321185323377
sS'kota'
p2864
F0.004155393150968148
sS'qaeda'
p2865
F0.0013852733245827348
sS'sabah'
p2866
F0.016980344615123658
sS'nicobar'
p2867
F0.0010387343904118527
sS'boeing'
p2868
F0.018359998451763712
sS'adams'
p2869
F0.0013852733245827348
sS'umno'
p2870
F0.0005232481437645478
sS'icao'
p2871
F0.0010387343904118527
sS'angus'
p2872
F0.002077909986874102
sS'hurley'
p2873
F0.0010387343904118527
sS'chunjiang'
p2874
I0
sS'hmas'
p2875
F0.0010387343904118527
sS'raaf'
p2876
F0.004504350400720584
sS'ntsb'
p2877
F0.0013852733245827348
sS'tho'
p2878
F0.0010387343904118527
sS'pham'
p2879
F0.0013848321185323377
sS'karpal'
p2880
F0.0017318266420239571
sS'petaling'
p2881
F0.0010387343904118527
sS'maraldi'
p2882
F0.00173137105270322
sS'kozel'
p2883
F0.001384832118532338
sS'interpol'
p2884
F0.007275403216979769
sS'hassan'
p2885
F0.0013852733245827348
sS'adenan'
p2886
F0.0013852733245827348
sS'roos'
p2887
F0.0031171202388204887
sS'chunyong'
p2888
I0
ssS'xinhua'
p2889
(dp2890
S'minh'
p2891
F0.002078409347465159
sS'manmohan'
p2892
F0.0027710460097565264
sS'cocos'
p2893
F0.002424948281636041
sS'memali'
p2894
F0.004157753595780318
sS'rosmah'
p2895
I0
sS'ali'
p2896
F0.0027706048037061293
sS'esscom'
p2897
F0.004504320509535302
sS'khalid'
p2898
F0.008313190518018784
sS'balingian'
p2899
F0.002424948281636041
sS'reuters'
p2900
F0.00762001316281477
sS'orion'
p2901
F0.005542558765678033
sS'zahid'
p2902
F0.0034646232386893474
sS'rodzali'
p2903
F0.0031180608054619426
sS'tony'
p2904
F0.003810235989489116
sS'klia'
p2905
F0.003463241465997497
sS'perak'
p2906
F0.0045033576291012
sS'osama'
p2907
F0.002078409347465159
sS'najib'
p2908
F0.008003148943537854
sS'facebook'
p2909
F0.003464158533582428
sS'zaharie'
p2910
F0.010394936167376204
sS'pouria'
p2911
F0.0027715015990772635
sS'jackson'
p2912
F0.002078409347465159
sS'altantuyaa'
p2913
I0
sS'sulaiman'
p2914
I0
sS'fariq'
p2915
F0.007968508934303013
sS'pakatan'
p2916
F0.0027715015990772635
sS'amsa'
p2917
F0.0027715015990772635
sS'mukah'
p2918
F0.002078409347465159
sS'talbott'
p2919
F0.002078409347465159
sS'andaman'
p2920
F0.0021121488275628627
sS'yahya'
p2921
F0.002770604803706129
sS'melanau'
p2922
F0.002078409347465159
sS'taib'
p2923
F0.0041572854410952985
sS'lrb'
p2924
I0
sS'anwar'
p2925
F0.010049443023608764
sS'hishammuddin'
p2926
F0.008440987122027444
sS'khairul'
p2927
F0.002078409347465159
sS'mca'
p2928
F0.002424948281636041
sS'xinhua'
p2929
F0.0
sS'ronald'
p2930
F0.0031175993271977485
sS'digitalglobe'
p2931
F0.002424948281636041
sS'taliban'
p2932
F0.0038111877129748126
sS'inmarsat'
p2933
F0.005196943575512907
sS'delavar'
p2934
F0.0027715015990772635
sS'matthews'
p2935
F0.0027715015990772635
sS'mahathir'
p2936
F0.0027715015990772635
sS'francis'
p2937
F0.0031180608054619426
sS'azharuddin'
p2938
F0.003809339194117982
sS'phu'
p2939
F0.002424507075585644
sS'kota'
p2940
F0.005195068108021454
sS'qaeda'
p2941
F0.002424948281636041
sS'sabah'
p2942
F0.018020019572176967
sS'nicobar'
p2943
F0.002078409347465159
sS'boeing'
p2944
F0.017306796699092387
sS'adams'
p2945
F0.002424948281636041
sS'umno'
p2946
F0.0038111877129748126
sS'icao'
p2947
F0.002078409347465159
sS'angus'
p2948
F0.0031175849439274085
sS'hurley'
p2949
F0.002078409347465159
sS'chunjiang'
p2950
I0
sS'hmas'
p2951
F0.002078409347465159
sS'raaf'
p2952
F0.00554402535777389
sS'ntsb'
p2953
F0.002424948281636041
sS'tho'
p2954
F0.002078409347465159
sS'pham'
p2955
F0.002424507075585644
sS'karpal'
p2956
F0.0027715015990772635
sS'petaling'
p2957
F0.002078409347465159
sS'maraldi'
p2958
F0.0027710460097565264
sS'kozel'
p2959
F0.002424507075585644
sS'interpol'
p2960
F0.008315078174033074
sS'hassan'
p2961
F0.002424948281636041
sS'adenan'
p2962
F0.002424948281636041
sS'roos'
p2963
F0.004156795195873796
sS'chunyong'
p2964
I0
ssS'ronald'
p2965
(dp2966
S'minh'
p2967
F0.00173138543597356
sS'manmohan'
p2968
F0.002424022098264928
sS'cocos'
p2969
F0.002077924370144442
sS'memali'
p2970
F0.003810729684288719
sS'rosmah'
p2971
I0
sS'ali'
p2972
F0.0012999172562437294
sS'esscom'
p2973
F0.004157296598043703
sS'khalid'
p2974
F0.004628805320816805
sS'balingian'
p2975
F0.002077924370144442
sS'reuters'
p2976
F0.005195540743338216
sS'orion'
p2977
F0.0040718712182156325
sS'zahid'
p2978
F0.0031175993271977485
sS'rodzali'
p2979
F0.0015210518722869834
sS'tony'
p2980
F0.0034632120779975175
sS'klia'
p2981
F0.002424022098264928
sS'perak'
p2982
F0.0032025488455954473
sS'osama'
p2983
F0.00173138543597356
sS'najib'
p2984
F0.009006776464430492
sS'facebook'
p2985
F0.002424939165849859
sS'zaharie'
p2986
F0.010047912255884606
sS'pouria'
p2987
F0.00034609772812048515
sS'jackson'
p2988
F0.00173138543597356
sS'altantuyaa'
p2989
I0
sS'sulaiman'
p2990
I0
sS'fariq'
p2991
F0.007621485022811413
sS'pakatan'
p2992
F0.002424477687585665
sS'amsa'
p2993
F0.002424477687585665
sS'mukah'
p2994
F0.00173138543597356
sS'talbott'
p2995
F0.00173138543597356
sS'andaman'
p2996
F0.003115776348455501
sS'yahya'
p2997
F0.0024235808922145304
sS'melanau'
p2998
F0.00173138543597356
sS'taib'
p2999
F0.003810261529603699
sS'lrb'
p3000
I0
sS'anwar'
p3001
F0.009702419112117163
sS'hishammuddin'
p3002
F0.010739129040005256
sS'khairul'
p3003
F0.00173138543597356
sS'mca'
p3004
F0.002077924370144442
sS'xinhua'
p3005
F0.0031175993271977485
sS'ronald'
p3006
F0.0
sS'digitalglobe'
p3007
F0.002077924370144442
sS'taliban'
p3008
F0.003464163801483214
sS'inmarsat'
p3009
F0.004849919664021309
sS'delavar'
p3010
F0.00034609772812048515
sS'matthews'
p3011
F0.002424477687585665
sS'mahathir'
p3012
F0.002424477687585665
sS'francis'
p3013
F0.002771036893970344
sS'azharuddin'
p3014
F0.0016464561904146117
sS'phu'
p3015
F0.0020774831640940454
sS'kota'
p3016
F0.0037243805605590543
sS'qaeda'
p3017
F0.002077924370144442
sS'sabah'
p3018
F0.017672995660685364
sS'nicobar'
p3019
F0.00173138543597356
sS'boeing'
p3020
F0.016494620057554372
sS'adams'
p3021
F0.002077924370144442
sS'umno'
p3022
F0.003464163801483214
sS'icao'
p3023
F0.00173138543597356
sS'angus'
p3024
F0.0027705610324358096
sS'hurley'
p3025
F0.00173138543597356
sS'chunjiang'
p3026
I0
sS'hmas'
p3027
F0.00173138543597356
sS'raaf'
p3028
F0.005197001446282291
sS'ntsb'
p3029
F0.002077924370144442
sS'tho'
p3030
F0.00173138543597356
sS'pham'
p3031
F0.0020774831640940454
sS'karpal'
p3032
F0.002424477687585665
sS'petaling'
p3033
F0.00173138543597356
sS'maraldi'
p3034
F0.0013003584622941267
sS'kozel'
p3035
F0.0009538195281232442
sS'interpol'
p3036
F0.004216166982312789
sS'hassan'
p3037
F0.002077924370144442
sS'adenan'
p3038
F0.002077924370144442
sS'roos'
p3039
F0.0026861076484113954
sS'chunyong'
p3040
I0
ssS'digitalglobe'
p3041
(dp3042
S'minh'
p3043
F0.0010387343904118527
sS'manmohan'
p3044
F0.00173137105270322
sS'cocos'
p3045
F0.0013852733245827348
sS'memali'
p3046
F0.0031180786387270116
sS'rosmah'
p3047
I0
sS'ali'
p3048
F0.001730929846652823
sS'esscom'
p3049
F0.0034646455524819956
sS'khalid'
p3050
F0.006319730688951324
sS'balingian'
p3051
F0.0013852733245827348
sS'reuters'
p3052
F0.00562655333374731
sS'orion'
p3053
F0.004502883808624727
sS'zahid'
p3054
F0.002424948281636041
sS'rodzali'
p3055
F0.002078385848408636
sS'tony'
p3056
F0.0027705610324358096
sS'klia'
p3057
F0.0024235665089441904
sS'perak'
p3058
F0.0034636826720478935
sS'osama'
p3059
F0.0010387343904118527
sS'najib'
p3060
F0.008314125418868785
sS'facebook'
p3061
F0.0024244835765291216
sS'zaharie'
p3062
F0.0076737733521756646
sS'pouria'
p3063
F0.0017318266420239571
sS'jackson'
p3064
F0.0010387343904118527
sS'altantuyaa'
p3065
I0
sS'sulaiman'
p3066
I0
sS'fariq'
p3067
F0.00554356065266697
sS'pakatan'
p3068
F0.0017318266420239571
sS'amsa'
p3069
F0.0017318266420239571
sS'mukah'
p3070
F0.0010387343904118527
sS'talbott'
p3071
F0.0010387343904118527
sS'andaman'
p3072
F0.0014693404308796392
sS'yahya'
p3073
F0.001730929846652823
sS'melanau'
p3074
F0.0010387343904118527
sS'taib'
p3075
F0.003117610484041992
sS'lrb'
p3076
I0
sS'anwar'
p3077
F0.009009768066555457
sS'hishammuddin'
p3078
F0.01004647799444355
sS'khairul'
p3079
F0.0010387343904118527
sS'mca'
p3080
F0.0013852733245827348
sS'xinhua'
p3081
F0.002424948281636041
sS'ronald'
p3082
F0.002077924370144442
sS'digitalglobe'
p3083
F0.0
sS'taliban'
p3084
F0.0027715127559215067
sS'inmarsat'
p3085
F0.004157268618459601
sS'delavar'
p3086
F0.0017318266420239571
sS'matthews'
p3087
F0.0017318266420239571
sS'mahathir'
p3088
F0.0017318266420239571
sS'francis'
p3089
F0.002078385848408636
sS'azharuddin'
p3090
F0.0018158793650505216
sS'phu'
p3091
F0.00043104724651818374
sS'kota'
p3092
F0.004155393150968147
sS'qaeda'
p3093
F0.0013852733245827348
sS'sabah'
p3094
F0.016980344615123658
sS'nicobar'
p3095
F0.0010387343904118527
sS'boeing'
p3096
F0.01611173383960676
sS'adams'
p3097
F0.0013852733245827348
sS'umno'
p3098
F0.0027715127559215067
sS'icao'
p3099
F0.0010387343904118527
sS'angus'
p3100
F0.002077909986874102
sS'hurley'
p3101
F0.0010387343904118527
sS'chunjiang'
p3102
I0
sS'hmas'
p3103
F0.0010387343904118527
sS'raaf'
p3104
F0.004504350400720584
sS'ntsb'
p3105
F0.0013852733245827348
sS'tho'
p3106
F8.494951839769862e-05
sS'pham'
p3107
F0.00043104724651818374
sS'karpal'
p3108
F0.0017318266420239571
sS'petaling'
p3109
F0.0010387343904118527
sS'maraldi'
p3110
F0.00173137105270322
sS'kozel'
p3111
F0.001384832118532338
sS'interpol'
p3112
F0.0063216183449656144
sS'hassan'
p3113
F0.0013852733245827348
sS'adenan'
p3114
F0.0013852733245827348
sS'roos'
p3115
F0.0031171202388204887
sS'chunyong'
p3116
I0
ssS'taliban'
p3117
(dp3118
S'minh'
p3119
F0.0024249738217506246
sS'manmohan'
p3120
F0.0031176104840419916
sS'cocos'
p3121
F0.0027715127559215067
sS'memali'
p3122
F0.004504318070065783
sS'rosmah'
p3123
I0
sS'ali'
p3124
F0.0031171692779915945
sS'esscom'
p3125
F0.004850884983820768
sS'khalid'
p3126
F0.007225389188504002
sS'balingian'
p3127
F0.0027715127559215067
sS'reuters'
p3128
F0.007966577637100236
sS'orion'
p3129
F0.005889123239963498
sS'zahid'
p3130
F0.0038111877129748126
sS'rodzali'
p3131
F0.0034646252797474082
sS'tony'
p3132
F0.004156800463774582
sS'klia'
p3133
F0.003809805940282962
sS'perak'
p3134
F0.004849922103386666
sS'osama'
p3135
F0.0009906080179503769
sS'najib'
p3136
F0.005911935818690822
sS'facebook'
p3137
F0.003810723007867893
sS'zaharie'
p3138
F0.010741500641661671
sS'pouria'
p3139
F0.003118066073362729
sS'jackson'
p3140
F0.0009906080179503769
sS'altantuyaa'
p3141
I0
sS'sulaiman'
p3142
I0
sS'fariq'
p3143
F0.008315073408588477
sS'pakatan'
p3144
F0.003118066073362729
sS'amsa'
p3145
F0.003118066073362729
sS'mukah'
p3146
F0.0024249738217506246
sS'talbott'
p3147
F0.0024249738217506246
sS'andaman'
p3148
F0.0038093647342325654
sS'yahya'
p3149
F0.0031171692779915945
sS'melanau'
p3150
F0.0024249738217506246
sS'taib'
p3151
F0.004503849915380763
sS'lrb'
p3152
I0
sS'anwar'
p3153
F0.010396007497894228
sS'hishammuddin'
p3154
F0.011432717425782321
sS'khairul'
p3155
F0.0024249738217506246
sS'mca'
p3156
F0.0027715127559215067
sS'xinhua'
p3157
F0.0038111877129748126
sS'ronald'
p3158
F0.003464163801483214
sS'digitalglobe'
p3159
F0.0027715127559215067
sS'taliban'
p3160
F0.0
sS'inmarsat'
p3161
F0.005543508049798373
sS'delavar'
p3162
F0.003118066073362729
sS'matthews'
p3163
F0.003118066073362729
sS'mahathir'
p3164
F0.003118066073362729
sS'francis'
p3165
F0.0034646252797474082
sS'azharuddin'
p3166
F0.004155903668403447
sS'phu'
p3167
F0.0027710715498711095
sS'kota'
p3168
F0.005541632582306919
sS'qaeda'
p3169
F0.0005232481437645478
sS'sabah'
p3170
F0.01836658404646243
sS'nicobar'
p3171
F0.0024249738217506246
sS'boeing'
p3172
F0.019746237883102487
sS'adams'
p3173
F0.0027715127559215067
sS'umno'
p3174
F0.004157752187260278
sS'icao'
p3175
F0.0024249738217506246
sS'angus'
p3176
F0.0034641494182128746
sS'hurley'
p3177
F0.0024249738217506246
sS'chunjiang'
p3178
I0
sS'hmas'
p3179
F0.0024249738217506246
sS'raaf'
p3180
F0.005890589832059355
sS'ntsb'
p3181
F0.0027715127559215067
sS'tho'
p3182
F0.0024249738217506246
sS'pham'
p3183
F0.0027710715498711095
sS'karpal'
p3184
F0.003118066073362729
sS'petaling'
p3185
F0.0024249738217506246
sS'maraldi'
p3186
F0.003117610484041992
sS'kozel'
p3187
F0.0027710715498711095
sS'interpol'
p3188
F0.00866164264831854
sS'hassan'
p3189
F0.0027715127559215067
sS'adenan'
p3190
F0.0027715127559215067
sS'roos'
p3191
F0.004503359670159262
sS'chunyong'
p3192
I0
ssS'inmarsat'
p3193
(dp3194
S'minh'
p3195
F0.003810729684288719
sS'manmohan'
p3196
F0.004503366346580087
sS'cocos'
p3197
F0.004157268618459601
sS'memali'
p3198
F0.005890073932603879
sS'rosmah'
p3199
I0
sS'ali'
p3200
F0.00450292514052969
sS'esscom'
p3201
F0.006236640846358862
sS'khalid'
p3202
F0.010045510854842345
sS'balingian'
p3203
F0.004157268618459602
sS'reuters'
p3204
F0.00935233349963833
sS'orion'
p3205
F0.004892284880534889
sS'zahid'
p3206
F0.005196943575512907
sS'rodzali'
p3207
F0.004850381142285503
sS'tony'
p3208
F0.0031599621043459725
sS'klia'
p3209
F0.005195561802821057
sS'perak'
p3210
F0.0062356779659247605
sS'osama'
p3211
F0.003810729684288719
sS'najib'
p3212
F0.008032903149102676
sS'facebook'
p3213
F0.005196478870405988
sS'zaharie'
p3214
F0.00907403894055679
sS'pouria'
p3215
F0.004503821935900824
sS'jackson'
p3216
F0.003810729684288719
sS'altantuyaa'
p3217
I0
sS'sulaiman'
p3218
I0
sS'fariq'
p3219
F0.007311726870784871
sS'pakatan'
p3220
F0.004503821935900824
sS'amsa'
p3221
F0.004503821935900824
sS'mukah'
p3222
F0.003810729684288719
sS'talbott'
p3223
F0.003810729684288719
sS'andaman'
p3224
F0.004071456960799858
sS'yahya'
p3225
F0.00450292514052969
sS'melanau'
p3226
F0.003810729684288719
sS'taib'
p3227
F0.005889605777918858
sS'lrb'
p3228
I0
sS'anwar'
p3229
F0.011781763360432322
sS'hishammuddin'
p3230
F0.01113698543017318
sS'khairul'
p3231
F0.002687066048317918
sS'mca'
p3232
F0.004157268618459601
sS'xinhua'
p3233
F0.005196943575512907
sS'ronald'
p3234
F0.004849919664021309
sS'digitalglobe'
p3235
F0.004157268618459601
sS'taliban'
p3236
F0.005543508049798373
sS'inmarsat'
p3237
F0.0
sS'delavar'
p3238
F0.004503821935900824
sS'matthews'
p3239
F0.004503821935900824
sS'mahathir'
p3240
F0.004503821935900824
sS'francis'
p3241
F0.004850381142285503
sS'azharuddin'
p3242
F0.005541659530941542
sS'phu'
p3243
F0.004156827412409204
sS'kota'
p3244
F0.006927388444845015
sS'qaeda'
p3245
F0.004157268618459601
sS'sabah'
p3246
F0.019752339909000525
sS'nicobar'
p3247
F0.002687066048317918
sS'boeing'
p3248
F0.019053613786175403
sS'adams'
p3249
F0.004157268618459601
sS'umno'
p3250
F0.005543508049798373
sS'icao'
p3251
F0.003810729684288719
sS'angus'
p3252
F0.004849905280750968
sS'hurley'
p3253
F0.003810729684288719
sS'chunjiang'
p3254
I0
sS'hmas'
p3255
F0.003810729684288719
sS'raaf'
p3256
F0.007276345694597451
sS'ntsb'
p3257
F0.004157268618459602
sS'tho'
p3258
F0.003810729684288719
sS'pham'
p3259
F0.004156827412409204
sS'karpal'
p3260
F0.004503821935900824
sS'petaling'
p3261
F0.003810729684288719
sS'maraldi'
p3262
F0.004503366346580086
sS'kozel'
p3263
F0.004156827412409204
sS'interpol'
p3264
F0.010047398510856634
sS'hassan'
p3265
F0.004157268618459601
sS'adenan'
p3266
F0.004157268618459602
sS'roos'
p3267
F0.005889115532697355
sS'chunyong'
p3268
I0
ssS'delavar'
p3269
(dp3270
S'minh'
p3271
F0.001385287707853075
sS'manmohan'
p3272
F0.0020779243701444425
sS'cocos'
p3273
F0.0017318266420239571
sS'memali'
p3274
F0.0034646319561682337
sS'rosmah'
p3275
I0
sS'ali'
p3276
F0.0009538195281232442
sS'esscom'
p3277
F0.0038111988699232177
sS'khalid'
p3278
F0.00497490304893729
sS'balingian'
p3279
F0.0017318266420239571
sS'reuters'
p3280
F0.005803227887231885
sS'orion'
p3281
F0.0037257734900951476
sS'zahid'
p3282
F0.0027715015990772635
sS'rodzali'
p3283
F0.002424939165849859
sS'tony'
p3284
F0.003117114349877032
sS'klia'
p3285
F0.002770119826385413
sS'perak'
p3286
F0.003810235989489116
sS'osama'
p3287
F0.001385287707853075
sS'najib'
p3288
F0.008660678736310006
sS'facebook'
p3289
F0.002771036893970344
sS'zaharie'
p3290
F0.00970181452776412
sS'pouria'
p3291
F0.0
sS'jackson'
p3292
F0.001385287707853075
sS'altantuyaa'
p3293
I0
sS'sulaiman'
p3294
I0
sS'fariq'
p3295
F0.007275387294690927
sS'pakatan'
p3296
F0.0020783799594651796
sS'amsa'
p3297
F0.0020783799594651796
sS'mukah'
p3298
F0.001385287707853075
sS'talbott'
p3299
F0.001385287707853075
sS'andaman'
p3300
F0.0027696786203350154
sS'yahya'
p3301
F0.0020774831640940454
sS'melanau'
p3302
F0.001385287707853075
sS'taib'
p3303
F0.003464163801483214
sS'lrb'
p3304
I0
sS'anwar'
p3305
F0.009356321383996679
sS'hishammuddin'
p3306
F0.010393031311884772
sS'khairul'
p3307
F0.001385287707853075
sS'mca'
p3308
F0.0017318266420239571
sS'xinhua'
p3309
F0.0027715015990772635
sS'ronald'
p3310
F0.00034609772812048515
sS'digitalglobe'
p3311
F0.0017318266420239571
sS'taliban'
p3312
F0.003118066073362729
sS'inmarsat'
p3313
F0.004503821935900824
sS'delavar'
p3314
F0.0
sS'matthews'
p3315
F0.0020783799594651796
sS'mahathir'
p3316
F0.0020783799594651796
sS'francis'
p3317
F0.002424939165849859
sS'azharuddin'
p3318
F0.001992553918535097
sS'phu'
p3319
F0.00173138543597356
sS'kota'
p3320
F0.00450194646840937
sS'qaeda'
p3321
F0.0017318266420239571
sS'sabah'
p3322
F0.01732689793256488
sS'nicobar'
p3323
F0.001385287707853075
sS'boeing'
p3324
F0.017582888133234137
sS'adams'
p3325
F0.0017318266420239571
sS'umno'
p3326
F0.003118066073362729
sS'icao'
p3327
F0.001385287707853075
sS'angus'
p3328
F0.0024244633043153246
sS'hurley'
p3329
F0.001385287707853075
sS'chunjiang'
p3330
I0
sS'hmas'
p3331
F0.001385287707853075
sS'raaf'
p3332
F0.004850903718161806
sS'ntsb'
p3333
F0.0017318266420239571
sS'tho'
p3334
F0.001385287707853075
sS'pham'
p3335
F0.00173138543597356
sS'karpal'
p3336
F0.0020783799594651796
sS'petaling'
p3337
F0.001385287707853075
sS'maraldi'
p3338
F0.0009542607341736413
sS'kozel'
p3339
F0.0006077218000027591
sS'interpol'
p3340
F0.003870069254192302
sS'hassan'
p3341
F0.0017318266420239571
sS'adenan'
p3342
F0.0017318266420239571
sS'roos'
p3343
F0.00234000992029091
sS'chunyong'
p3344
I0
ssS'matthews'
p3345
(dp3346
S'minh'
p3347
F0.001385287707853075
sS'manmohan'
p3348
F0.0020779243701444425
sS'cocos'
p3349
F0.0017318266420239571
sS'memali'
p3350
F0.0034646319561682337
sS'rosmah'
p3351
I0
sS'ali'
p3352
F0.0020774831640940454
sS'esscom'
p3353
F0.0038111988699232177
sS'khalid'
p3354
F0.0076200688784067005
sS'balingian'
p3355
F0.0017318266420239571
sS'reuters'
p3356
F0.006926891523202686
sS'orion'
p3357
F0.004849437126065948
sS'zahid'
p3358
F0.0027715015990772635
sS'rodzali'
p3359
F0.002424939165849859
sS'tony'
p3360
F0.0031171143498770317
sS'klia'
p3361
F0.002770119826385413
sS'perak'
p3362
F0.003810235989489116
sS'osama'
p3363
F0.001385287707853075
sS'najib'
p3364
F0.008660678736310008
sS'facebook'
p3365
F0.002771036893970344
sS'zaharie'
p3366
F0.00970181452776412
sS'pouria'
p3367
F0.0020783799594651796
sS'jackson'
p3368
F0.001385287707853075
sS'altantuyaa'
p3369
I0
sS'sulaiman'
p3370
I0
sS'fariq'
p3371
F0.007275387294690928
sS'pakatan'
p3372
F0.0020783799594651796
sS'amsa'
p3373
F0.0020783799594651796
sS'mukah'
p3374
F0.001385287707853075
sS'talbott'
p3375
F0.001385287707853075
sS'andaman'
p3376
F0.0027696786203350154
sS'yahya'
p3377
F0.0020774831640940454
sS'melanau'
p3378
F0.001385287707853075
sS'taib'
p3379
F0.003464163801483214
sS'lrb'
p3380
I0
sS'anwar'
p3381
F0.009356321383996679
sS'hishammuddin'
p3382
F0.010393031311884772
sS'khairul'
p3383
F0.001385287707853075
sS'mca'
p3384
F0.0017318266420239571
sS'xinhua'
p3385
F0.0027715015990772635
sS'ronald'
p3386
F0.002424477687585665
sS'digitalglobe'
p3387
F0.0017318266420239571
sS'taliban'
p3388
F0.003118066073362729
sS'inmarsat'
p3389
F0.004503821935900824
sS'delavar'
p3390
F0.0020783799594651796
sS'matthews'
p3391
F0.0
sS'mahathir'
p3392
F0.0020783799594651796
sS'francis'
p3393
F0.002424939165849859
sS'azharuddin'
p3394
F0.0031162175545058983
sS'phu'
p3395
F0.00173138543597356
sS'kota'
p3396
F0.00450194646840937
sS'qaeda'
p3397
F0.0017318266420239571
sS'sabah'
p3398
F0.01732689793256488
sS'nicobar'
p3399
F0.001385287707853075
sS'boeing'
p3400
F0.018706551769204938
sS'adams'
p3401
F0.0017318266420239571
sS'umno'
p3402
F0.003118066073362729
sS'icao'
p3403
F0.001385287707853075
sS'angus'
p3404
F0.0024244633043153246
sS'hurley'
p3405
F0.001385287707853075
sS'chunjiang'
p3406
I0
sS'hmas'
p3407
F0.001385287707853075
sS'raaf'
p3408
F0.004850903718161806
sS'ntsb'
p3409
F0.0017318266420239571
sS'tho'
p3410
F0.001385287707853075
sS'pham'
p3411
F0.00173138543597356
sS'karpal'
p3412
F0.0020783799594651796
sS'petaling'
p3413
F0.001385287707853075
sS'maraldi'
p3414
F0.002077924370144442
sS'kozel'
p3415
F0.00173138543597356
sS'interpol'
p3416
F0.007621956534420991
sS'hassan'
p3417
F0.0017318266420239571
sS'adenan'
p3418
F0.0017318266420239571
sS'roos'
p3419
F0.003463673556261711
sS'chunyong'
p3420
I0
ssS'mahathir'
p3421
(dp3422
S'minh'
p3423
F0.001385287707853075
sS'manmohan'
p3424
F0.0020779243701444425
sS'cocos'
p3425
F0.0017318266420239571
sS'memali'
p3426
F0.0034646319561682337
sS'rosmah'
p3427
I0
sS'ali'
p3428
F0.0009538195281232443
sS'esscom'
p3429
F0.0038111988699232177
sS'khalid'
p3430
F0.0076200688784067005
sS'balingian'
p3431
F0.0017318266420239571
sS'reuters'
p3432
F0.006926891523202686
sS'orion'
p3433
F0.004849437126065948
sS'zahid'
p3434
F0.0027715015990772635
sS'rodzali'
p3435
F0.002424939165849859
sS'tony'
p3436
F0.0031171143498770317
sS'klia'
p3437
F0.002770119826385413
sS'perak'
p3438
F0.003810235989489116
sS'osama'
p3439
F0.001385287707853075
sS'najib'
p3440
F0.005607461172667033
sS'facebook'
p3441
F0.002771036893970344
sS'zaharie'
p3442
F0.00970181452776412
sS'pouria'
p3443
F0.0020783799594651796
sS'jackson'
p3444
F0.001385287707853075
sS'altantuyaa'
p3445
I0
sS'sulaiman'
p3446
I0
sS'fariq'
p3447
F0.007275387294690928
sS'pakatan'
p3448
F0.0
sS'amsa'
p3449
F0.0020783799594651796
sS'mukah'
p3450
F0.001385287707853075
sS'talbott'
p3451
F0.001385287707853075
sS'andaman'
p3452
F0.0027696786203350154
sS'yahya'
p3453
F0.0020774831640940454
sS'melanau'
p3454
F0.001385287707853075
sS'taib'
p3455
F0.003464163801483214
sS'lrb'
p3456
I0
sS'anwar'
p3457
F0.004648253643678333
sS'hishammuddin'
p3458
F0.010393031311884772
sS'khairul'
p3459
F0.001385287707853075
sS'mca'
p3460
F5.0338783876722164e-05
sS'xinhua'
p3461
F0.0027715015990772635
sS'ronald'
p3462
F0.002424477687585665
sS'digitalglobe'
p3463
F0.0017318266420239571
sS'taliban'
p3464
F0.003118066073362729
sS'inmarsat'
p3465
F0.004503821935900824
sS'delavar'
p3466
F0.0020783799594651796
sS'matthews'
p3467
F0.0020783799594651796
sS'mahathir'
p3468
F0.0
sS'francis'
p3469
F0.002424939165849859
sS'azharuddin'
p3470
F0.0031162175545058983
sS'phu'
p3471
F0.00173138543597356
sS'kota'
p3472
F0.00450194646840937
sS'qaeda'
p3473
F0.0017318266420239571
sS'sabah'
p3474
F0.01732689793256488
sS'nicobar'
p3475
F0.001385287707853075
sS'boeing'
p3476
F0.018706551769204938
sS'adams'
p3477
F0.0017318266420239571
sS'umno'
p3478
F0.0002548485551930958
sS'icao'
p3479
F0.001385287707853075
sS'angus'
p3480
F0.0024244633043153246
sS'hurley'
p3481
F0.001385287707853075
sS'chunjiang'
p3482
I0
sS'hmas'
p3483
F0.001385287707853075
sS'raaf'
p3484
F0.004850903718161806
sS'ntsb'
p3485
F0.0017318266420239571
sS'tho'
p3486
F0.001385287707853075
sS'pham'
p3487
F0.00173138543597356
sS'karpal'
p3488
F0.0020783799594651796
sS'petaling'
p3489
F0.001385287707853075
sS'maraldi'
p3490
F0.002077924370144442
sS'kozel'
p3491
F0.00173138543597356
sS'interpol'
p3492
F0.007621956534420991
sS'hassan'
p3493
F0.0017318266420239571
sS'adenan'
p3494
F0.0017318266420239571
sS'roos'
p3495
F0.003463673556261711
sS'chunyong'
p3496
I0
ssS'francis'
p3497
(dp3498
S'minh'
p3499
F0.00048186189255439377
sS'manmohan'
p3500
F0.0024244835765291216
sS'cocos'
p3501
F0.002078385848408636
sS'memali'
p3502
F0.003811191162552913
sS'rosmah'
p3503
I0
sS'ali'
p3504
F0.0024240423704787245
sS'esscom'
p3505
F0.00033979807359079447
sS'khalid'
p3506
F0.007966628084791379
sS'balingian'
p3507
F0.002078385848408636
sS'reuters'
p3508
F0.007273450729587365
sS'orion'
p3509
F0.005195996332450627
sS'zahid'
p3510
F0.0031180608054619426
sS'rodzali'
p3511
F0.002771498372234538
sS'tony'
p3512
F0.0034636735562617116
sS'klia'
p3513
F0.0012081922211568529
sS'perak'
p3514
F0.004156795195873795
sS'osama'
p3515
F0.001731846914237754
sS'najib'
p3516
F0.009007237942694686
sS'facebook'
p3517
F0.003117596100355023
sS'zaharie'
p3518
F0.010048373734148802
sS'pouria'
p3519
F0.002424939165849859
sS'jackson'
p3520
F0.001731846914237754
sS'altantuyaa'
p3521
I0
sS'sulaiman'
p3522
I0
sS'fariq'
p3523
F0.007621946501075607
sS'pakatan'
p3524
F0.002424939165849859
sS'amsa'
p3525
F0.002424939165849859
sS'mukah'
p3526
F0.001731846914237754
sS'talbott'
p3527
F0.001731846914237754
sS'andaman'
p3528
F0.003116237826719695
sS'yahya'
p3529
F0.0024240423704787245
sS'melanau'
p3530
F0.001731846914237754
sS'taib'
p3531
F0.003810723007867893
sS'lrb'
p3532
I0
sS'anwar'
p3533
F0.009702880590381359
sS'hishammuddin'
p3534
F0.010739590518269452
sS'khairul'
p3535
F0.001731846914237754
sS'mca'
p3536
F0.002078385848408636
sS'xinhua'
p3537
F0.0031180608054619426
sS'ronald'
p3538
F0.002771036893970344
sS'digitalglobe'
p3539
F0.002078385848408636
sS'taliban'
p3540
F0.0034646252797474082
sS'inmarsat'
p3541
F0.004850381142285503
sS'delavar'
p3542
F0.002424939165849859
sS'matthews'
p3543
F0.002424939165849859
sS'mahathir'
p3544
F0.002424939165849859
sS'francis'
p3545
F0.0
sS'azharuddin'
p3546
F0.003462776760890577
sS'phu'
p3547
F0.000827959620674879
sS'kota'
p3548
F0.003598520653110689
sS'qaeda'
p3549
F0.002078385848408636
sS'sabah'
p3550
F0.011172997881799158
sS'nicobar'
p3551
F0.001731846914237754
sS'boeing'
p3552
F0.019053110975589618
sS'adams'
p3553
F0.002078385848408636
sS'umno'
p3554
F0.0034646252797474082
sS'icao'
p3555
F0.001731846914237754
sS'angus'
p3556
F0.0027710225107000037
sS'hurley'
p3557
F0.001731846914237754
sS'chunjiang'
p3558
I0
sS'hmas'
p3559
F0.001731846914237754
sS'raaf'
p3560
F0.005197462924546485
sS'ntsb'
p3561
F0.002078385848408636
sS'tho'
p3562
F0.001731846914237754
sS'pham'
p3563
F0.000827959620674879
sS'karpal'
p3564
F0.002424939165849859
sS'petaling'
p3565
F0.001731846914237754
sS'maraldi'
p3566
F0.0024244835765291216
sS'kozel'
p3567
F0.0020779446423582395
sS'interpol'
p3568
F0.00796851574080567
sS'hassan'
p3569
F0.002078385848408636
sS'adenan'
p3570
F0.002078385848408636
sS'roos'
p3571
F0.0038102327626463907
sS'chunyong'
p3572
I0
ssS'azharuddin'
p3573
(dp3574
S'minh'
p3575
F0.0024231253028937933
sS'manmohan'
p3576
F0.003115761965185161
sS'cocos'
p3577
F0.0013843909124819406
sS'memali'
p3578
F0.004502469551208952
sS'rosmah'
p3579
I0
sS'ali'
p3580
F0.0024231253028937933
sS'esscom'
p3581
F0.004849036464963936
sS'khalid'
p3582
F0.004537590803998507
sS'balingian'
p3583
F0.002769664237064676
sS'reuters'
p3584
F0.004376568312063949
sS'orion'
p3585
F0.005195079264865697
sS'zahid'
p3586
F0.003809339194117982
sS'rodzali'
p3587
F0.0022127917392072167
sS'tony'
p3588
F0.00415495194491775
sS'klia'
p3589
F0.0024235665089441904
sS'perak'
p3590
F0.0038942887125156807
sS'osama'
p3591
F0.0024231253028937937
sS'najib'
p3592
F0.009006320875109754
sS'facebook'
p3593
F0.003116679032770092
sS'zaharie'
p3594
F0.009615988486834039
sS'pouria'
p3595
F0.001992553918535097
sS'jackson'
p3596
F0.0024231253028937937
sS'altantuyaa'
p3597
I0
sS'sulaiman'
p3598
I0
sS'fariq'
p3599
F0.007359440017717492
sS'pakatan'
p3600
F0.0031162175545058983
sS'amsa'
p3601
F0.003116217554505898
sS'mukah'
p3602
F0.0024231253028937937
sS'talbott'
p3603
F0.0017309298466528231
sS'andaman'
p3604
F0.0024231253028937933
sS'yahya'
p3605
F0.0021615358871206096
sS'melanau'
p3606
F0.0024231253028937937
sS'taib'
p3607
F0.004502001396523933
sS'lrb'
p3608
I0
sS'anwar'
p3609
F0.010394158979037397
sS'hishammuddin'
p3610
F0.010045595582342755
sS'khairul'
p3611
F0.0024231253028937937
sS'mca'
p3612
F0.002769664237064676
sS'xinhua'
p3613
F0.003809339194117982
sS'ronald'
p3614
F0.0016464561904146117
sS'digitalglobe'
p3615
F0.0018158793650505216
sS'taliban'
p3616
F0.004155903668403447
sS'inmarsat'
p3617
F0.005541659530941542
sS'delavar'
p3618
F0.001992553918535097
sS'matthews'
p3619
F0.0031162175545058983
sS'mahathir'
p3620
F0.0031162175545058983
sS'francis'
p3621
F0.003462776760890577
sS'azharuddin'
p3622
F0.0
sS'phu'
p3623
F0.0020770275747733083
sS'kota'
p3624
F0.004416120427479287
sS'qaeda'
p3625
F0.002769664237064676
sS'sabah'
p3626
F0.018364735527605598
sS'nicobar'
p3627
F0.0024231253028937937
sS'boeing'
p3628
F0.012656219786879312
sS'adams'
p3629
F0.002769664237064676
sS'umno'
p3630
F0.004155903668403447
sS'icao'
p3631
F0.0024231253028937937
sS'angus'
p3632
F0.003462300899356043
sS'hurley'
p3633
F0.001469340430879639
sS'chunjiang'
p3634
I0
sS'hmas'
p3635
F0.0024231253028937933
sS'raaf'
p3636
F0.005888741313202524
sS'ntsb'
p3637
F0.002769664237064676
sS'tho'
p3638
F0.0017309298466528231
sS'pham'
p3639
F0.0020770275747733083
sS'karpal'
p3640
F0.0031162175545058983
sS'petaling'
p3641
F0.0024231253028937937
sS'maraldi'
p3642
F0.0024235665089441904
sS'kozel'
p3643
F0.0020770275747733083
sS'interpol'
p3644
F0.006205943715808631
sS'hassan'
p3645
F0.002769664237064676
sS'adenan'
p3646
F0.002769664237064676
sS'roos'
p3647
F0.0038093156950614595
sS'chunyong'
p3648
I0
ssS'phu'
p3649
(dp3650
S'minh'
p3651
F0.00034609772812048515
sS'manmohan'
p3652
F0.001730929846652823
sS'cocos'
p3653
F0.0013848321185323377
sS'memali'
p3654
F0.0031176374326766145
sS'rosmah'
p3655
I0
sS'ali'
p3656
F0.0017304886406024258
sS'esscom'
p3657
F0.0018955156093465953
sS'khalid'
p3658
F0.00658087889867411
sS'balingian'
p3659
F0.0013848321185323377
sS'reuters'
p3660
F0.005887701543470096
sS'orion'
p3661
F0.00450244260257433
sS'zahid'
p3662
F0.002424507075585644
sS'rodzali'
p3663
F0.0020779446423582395
sS'tony'
p3664
F0.0027701198263854125
sS'klia'
p3665
F0.0014693404308796392
sS'perak'
p3666
F0.0034632414659974964
sS'osama'
p3667
F0.0010382931843614554
sS'najib'
p3668
F0.008313684212818386
sS'facebook'
p3669
F0.0024240423704787245
sS'zaharie'
p3670
F0.0082311563683017
sS'pouria'
p3671
F0.00173138543597356
sS'jackson'
p3672
F0.0010382931843614554
sS'altantuyaa'
p3673
I0
sS'sulaiman'
p3674
I0
sS'fariq'
p3675
F0.005974607899185154
sS'pakatan'
p3676
F0.00173138543597356
sS'amsa'
p3677
F0.00173138543597356
sS'mukah'
p3678
F0.0010382931843614554
sS'talbott'
p3679
F0.0010382931843614554
sS'andaman'
p3680
F0.0017304886406024258
sS'yahya'
p3681
F0.0017304886406024258
sS'melanau'
p3682
F0.0010382931843614554
sS'taib'
p3683
F0.0031171692779915945
sS'lrb'
p3684
I0
sS'anwar'
p3685
F0.009009326860505061
sS'hishammuddin'
p3686
F0.010046036788393152
sS'khairul'
p3687
F0.0010382931843614554
sS'mca'
p3688
F0.0013848321185323377
sS'xinhua'
p3689
F0.002424507075585644
sS'ronald'
p3690
F0.0020774831640940454
sS'digitalglobe'
p3691
F0.00043104724651818374
sS'taliban'
p3692
F0.0027710715498711095
sS'inmarsat'
p3693
F0.004156827412409204
sS'delavar'
p3694
F0.00173138543597356
sS'matthews'
p3695
F0.00173138543597356
sS'mahathir'
p3696
F0.00173138543597356
sS'francis'
p3697
F0.000827959620674879
sS'azharuddin'
p3698
F0.0020770275747733083
sS'phu'
p3699
F0.0
sS'kota'
p3700
F0.00346275648867678
sS'qaeda'
p3701
F0.0013848321185323377
sS'sabah'
p3702
F0.014682393815200517
sS'nicobar'
p3703
F0.0010382931843614554
sS'boeing'
p3704
F0.01692519144191307
sS'adams'
p3705
F0.0013848321185323377
sS'umno'
p3706
F0.0027710715498711095
sS'icao'
p3707
F0.0010382931843614554
sS'angus'
p3708
F0.002077468780823705
sS'hurley'
p3709
F0.0010382931843614554
sS'chunjiang'
p3710
I0
sS'hmas'
p3711
F0.0010382931843614554
sS'raaf'
p3712
F0.004503909194670187
sS'ntsb'
p3713
F0.0013848321185323377
sS'tho'
p3714
F0.00034609772812048515
sS'pham'
p3715
F0.0
sS'karpal'
p3716
F0.00173138543597356
sS'petaling'
p3717
F0.0010382931843614554
sS'maraldi'
p3718
F0.001730929846652823
sS'kozel'
p3719
F0.0013843909124819408
sS'interpol'
p3720
F0.006582766554688401
sS'hassan'
p3721
F0.001384832118532338
sS'adenan'
p3722
F0.0013848321185323377
sS'roos'
p3723
F0.0031166790327700916
sS'chunyong'
p3724
I0
ssS'kota'
p3725
(dp3726
S'minh'
p3727
F0.003116658760556295
sS'manmohan'
p3728
F0.004501490879088633
sS'cocos'
p3729
F0.004155393150968148
sS'memali'
p3730
F0.0035056042431457204
sS'rosmah'
p3731
I0
sS'ali'
p3732
F0.0038088542167972654
sS'esscom'
p3733
F0.004666076641782405
sS'khalid'
p3734
F0.008227776295139119
sS'balingian'
p3735
F0.0032016082789539935
sS'reuters'
p3736
F0.006715185301985487
sS'orion'
p3737
F0.00727300363501014
sS'zahid'
p3738
F0.005195068108021454
sS'rodzali'
p3739
F0.0024594032744523486
sS'tony'
p3740
F0.0055406808588212226
sS'klia'
p3741
F0.0024240423711036777
sS'perak'
p3742
F0.0024594379305614388
sS'osama'
p3743
F0.003808854216797265
sS'najib'
p3744
F0.011084245245254197
sS'facebook'
p3745
F0.004070939766943733
sS'zaharie'
p3746
F0.012125381036708311
sS'pouria'
p3747
F0.00450194646840937
sS'jackson'
p3748
F0.003808854216797265
sS'altantuyaa'
p3749
I0
sS'sulaiman'
p3750
I0
sS'fariq'
p3751
F0.009006758347394148
sS'pakatan'
p3752
F0.00450194646840937
sS'amsa'
p3753
F0.00450194646840937
sS'mukah'
p3754
F0.003116658760556295
sS'talbott'
p3755
F0.003808854216797265
sS'andaman'
p3756
F0.005193245129279206
sS'yahya'
p3757
F0.004501049673038235
sS'melanau'
p3758
F0.003116658760556295
sS'taib'
p3759
F0.0029472702420294756
sS'lrb'
p3760
I0
sS'anwar'
p3761
F0.011779887892940868
sS'hishammuddin'
p3762
F0.012124402364587991
sS'khairul'
p3763
F0.003808854216797265
sS'mca'
p3764
F0.004155393150968148
sS'xinhua'
p3765
F0.005195068108021454
sS'ronald'
p3766
F0.0037243805605590543
sS'digitalglobe'
p3767
F0.004155393150968147
sS'taliban'
p3768
F0.005541632582306919
sS'inmarsat'
p3769
F0.006927388444845015
sS'delavar'
p3770
F0.00450194646840937
sS'matthews'
p3771
F0.00450194646840937
sS'mahathir'
p3772
F0.00450194646840937
sS'francis'
p3773
F0.003598520653110689
sS'azharuddin'
p3774
F0.004416120427479287
sS'phu'
p3775
F0.00346275648867678
sS'kota'
p3776
F0.0
sS'qaeda'
p3777
F0.004155393150968148
sS'sabah'
p3778
F0.01573301056610933
sS'nicobar'
p3779
F0.003808854216797265
sS'boeing'
p3780
F0.017143237124008694
sS'adams'
p3781
F0.004155393150968148
sS'umno'
p3782
F0.005541632582306919
sS'icao'
p3783
F0.003808854216797265
sS'angus'
p3784
F0.0048480298132595155
sS'hurley'
p3785
F0.003808854216797265
sS'chunjiang'
p3786
I0
sS'hmas'
p3787
F0.003808854216797265
sS'raaf'
p3788
F0.007274470227105997
sS'ntsb'
p3789
F0.004155393150968148
sS'tho'
p3790
F0.003808854216797265
sS'pham'
p3791
F0.00346275648867678
sS'karpal'
p3792
F0.00450194646840937
sS'petaling'
p3793
F0.003116658760556295
sS'maraldi'
p3794
F0.004501490879088633
sS'kozel'
p3795
F0.00415495194491775
sS'interpol'
p3796
F0.009091738171351027
sS'hassan'
p3797
F0.004155393150968147
sS'adenan'
p3798
F0.0032016082789539935
sS'roos'
p3799
F0.004933455193191748
sS'chunyong'
p3800
I0
ssS'qaeda'
p3801
(dp3802
S'minh'
p3803
F0.0010387343904118527
sS'manmohan'
p3804
F0.00173137105270322
sS'cocos'
p3805
F0.0013852733245827348
sS'memali'
p3806
F0.0031180786387270116
sS'rosmah'
p3807
I0
sS'ali'
p3808
F0.001730929846652823
sS'esscom'
p3809
F0.0034646455524819956
sS'khalid'
p3810
F0.006319730688951325
sS'balingian'
p3811
F0.0013852733245827348
sS'reuters'
p3812
F0.006580338205761463
sS'orion'
p3813
F0.004502883808624727
sS'zahid'
p3814
F0.002424948281636041
sS'rodzali'
p3815
F0.002078385848408636
sS'tony'
p3816
F0.0027705610324358096
sS'klia'
p3817
F0.0024235665089441904
sS'perak'
p3818
F0.0034636826720478935
sS'osama'
p3819
F8.494951839769862e-05
sS'najib'
p3820
F0.006221248709144151
sS'facebook'
p3821
F0.0024244835765291216
sS'zaharie'
p3822
F0.009355261210322898
sS'pouria'
p3823
F0.0017318266420239571
sS'jackson'
p3824
F8.494951839769862e-05
sS'altantuyaa'
p3825
I0
sS'sulaiman'
p3826
I0
sS'fariq'
p3827
F0.006928833977249705
sS'pakatan'
p3828
F0.0017318266420239571
sS'amsa'
p3829
F0.0017318266420239571
sS'mukah'
p3830
F0.0010387343904118527
sS'talbott'
p3831
F0.0010387343904118527
sS'andaman'
p3832
F0.0024231253028937933
sS'yahya'
p3833
F0.001730929846652823
sS'melanau'
p3834
F0.0010387343904118527
sS'taib'
p3835
F0.003117610484041992
sS'lrb'
p3836
I0
sS'anwar'
p3837
F0.009009768066555457
sS'hishammuddin'
p3838
F0.01004647799444355
sS'khairul'
p3839
F0.0010387343904118527
sS'mca'
p3840
F0.0013852733245827348
sS'xinhua'
p3841
F0.002424948281636041
sS'ronald'
p3842
F0.002077924370144442
sS'digitalglobe'
p3843
F0.0013852733245827348
sS'taliban'
p3844
F0.0005232481437645478
sS'inmarsat'
p3845
F0.004157268618459601
sS'delavar'
p3846
F0.0017318266420239571
sS'matthews'
p3847
F0.0017318266420239571
sS'mahathir'
p3848
F0.0017318266420239571
sS'francis'
p3849
F0.002078385848408636
sS'azharuddin'
p3850
F0.002769664237064676
sS'phu'
p3851
F0.0013848321185323377
sS'kota'
p3852
F0.004155393150968148
sS'qaeda'
p3853
F0.0
sS'sabah'
p3854
F0.016980344615123658
sS'nicobar'
p3855
F0.0010387343904118527
sS'boeing'
p3856
F0.018359998451763712
sS'adams'
p3857
F0.0013852733245827348
sS'umno'
p3858
F0.0027715127559215067
sS'icao'
p3859
F0.0010387343904118527
sS'angus'
p3860
F0.002077909986874102
sS'hurley'
p3861
F0.0010387343904118527
sS'chunjiang'
p3862
I0
sS'hmas'
p3863
F0.0010387343904118527
sS'raaf'
p3864
F0.004504350400720584
sS'ntsb'
p3865
F0.0013852733245827348
sS'tho'
p3866
F0.0010387343904118527
sS'pham'
p3867
F0.0013848321185323377
sS'karpal'
p3868
F0.0017318266420239571
sS'petaling'
p3869
F0.0010387343904118527
sS'maraldi'
p3870
F0.00173137105270322
sS'kozel'
p3871
F0.001384832118532338
sS'interpol'
p3872
F0.007275403216979769
sS'hassan'
p3873
F0.0013852733245827348
sS'adenan'
p3874
F0.0013852733245827348
sS'roos'
p3875
F0.0031171202388204887
sS'chunyong'
p3876
I0
ssS'sabah'
p3877
(dp3878
S'minh'
p3879
F0.014336296087080033
sS'manmohan'
p3880
F0.017326442343244146
sS'cocos'
p3881
F0.016980344615123658
sS'memali'
p3882
F0.018713149929267935
sS'rosmah'
p3883
I0
sS'ali'
p3884
F0.017326001137193747
sS'esscom'
p3885
F0.008629886823475588
sS'khalid'
p3886
F0.0228685868515064
sS'balingian'
p3887
F0.014190851245493713
sS'reuters'
p3888
F0.022175409496302385
sS'orion'
p3889
F0.02009795509916565
sS'zahid'
p3890
F0.018020019572176967
sS'rodzali'
p3891
F0.01767345713894956
sS'tony'
p3892
F0.018365632322976732
sS'klia'
p3893
F0.014102154391398225
sS'perak'
p3894
F0.01905875396258882
sS'osama'
p3895
F0.01663380568095278
sS'najib'
p3896
F0.023909196709409705
sS'facebook'
p3897
F0.018019554867070044
sS'zaharie'
p3898
F0.024950332500863825
sS'pouria'
p3899
F0.01732689793256488
sS'jackson'
p3900
F0.01663380568095278
sS'altantuyaa'
p3901
I0
sS'sulaiman'
p3902
I0
sS'fariq'
p3903
F0.022523905267790627
sS'pakatan'
p3904
F0.01732689793256488
sS'amsa'
p3905
F0.01732689793256488
sS'mukah'
p3906
F0.014913861399425783
sS'talbott'
p3907
F0.01663380568095278
sS'andaman'
p3908
F0.018018196593434715
sS'yahya'
p3909
F0.017326001137193747
sS'melanau'
p3910
F0.014913861399425783
sS'taib'
p3911
F0.016992737493055923
sS'lrb'
p3912
I0
sS'anwar'
p3913
F0.02460483935709638
sS'hishammuddin'
p3914
F0.02564154928498447
sS'khairul'
p3915
F0.01663380568095278
sS'mca'
p3916
F0.016980344615123658
sS'xinhua'
p3917
F0.018020019572176967
sS'ronald'
p3918
F0.017672995660685364
sS'digitalglobe'
p3919
F0.016980344615123658
sS'taliban'
p3920
F0.01836658404646243
sS'inmarsat'
p3921
F0.019752339909000525
sS'delavar'
p3922
F0.01732689793256488
sS'matthews'
p3923
F0.01732689793256488
sS'mahathir'
p3924
F0.01732689793256488
sS'francis'
p3925
F0.011172997881799158
sS'azharuddin'
p3926
F0.018364735527605598
sS'phu'
p3927
F0.014682393815200517
sS'kota'
p3928
F0.01573301056610933
sS'qaeda'
p3929
F0.016980344615123658
sS'sabah'
p3930
F0.0
sS'nicobar'
p3931
F0.01663380568095278
sS'boeing'
p3932
F0.03395506974230464
sS'adams'
p3933
F0.016980344615123658
sS'umno'
p3934
F0.01836658404646243
sS'icao'
p3935
F0.01663380568095278
sS'angus'
p3936
F0.017672981277415026
sS'hurley'
p3937
F0.01663380568095278
sS'chunjiang'
p3938
I0
sS'hmas'
p3939
F0.01663380568095278
sS'raaf'
p3940
F0.02009942169126151
sS'ntsb'
p3941
F0.016980344615123658
sS'tho'
p3942
F0.01663380568095278
sS'pham'
p3943
F0.014682393815200517
sS'karpal'
p3944
F0.01732689793256488
sS'petaling'
p3945
F0.014913861399425783
sS'maraldi'
p3946
F0.017326442343244146
sS'kozel'
p3947
F0.016979903409073262
sS'interpol'
p3948
F0.02287047450752069
sS'hassan'
p3949
F0.016980344615123658
sS'adenan'
p3950
F0.014190851245493713
sS'roos'
p3951
F0.018712191529361412
sS'chunyong'
p3952
I0
ssS'nicobar'
p3953
(dp3954
S'minh'
p3955
F0.0006921954562409703
sS'manmohan'
p3956
F0.001384832118532338
sS'cocos'
p3957
F0.0010387343904118527
sS'memali'
p3958
F0.002771539704556129
sS'rosmah'
p3959
I0
sS'ali'
p3960
F0.0013843909124819406
sS'esscom'
p3961
F0.0031181066183111135
sS'khalid'
p3962
F0.006926976626794596
sS'balingian'
p3963
F0.0010387343904118527
sS'reuters'
p3964
F0.0062337992715905816
sS'orion'
p3965
F0.004156344874453844
sS'zahid'
p3966
F0.002078409347465159
sS'rodzali'
p3967
F0.001731846914237754
sS'tony'
p3968
F0.0024240220982649275
sS'klia'
p3969
F0.0020770275747733083
sS'perak'
p3970
F0.0031171437378770114
sS'osama'
p3971
F0.0006921954562409703
sS'najib'
p3972
F0.006461554857355807
sS'facebook'
p3973
F0.0020779446423582395
sS'zaharie'
p3974
F0.007502690648809921
sS'pouria'
p3975
F0.001385287707853075
sS'jackson'
p3976
F0.0006921954562409703
sS'altantuyaa'
p3977
I0
sS'sulaiman'
p3978
I0
sS'fariq'
p3979
F0.005332310021395463
sS'pakatan'
p3980
F0.001385287707853075
sS'amsa'
p3981
F0.001385287707853075
sS'mukah'
p3982
F0.0006921954562409703
sS'talbott'
p3983
F0.0006921954562409703
sS'andaman'
p3984
F0.0013843909124819406
sS'yahya'
p3985
F0.0013843909124819408
sS'melanau'
p3986
F0.0006921954562409703
sS'taib'
p3987
F0.0027710715498711095
sS'lrb'
p3988
I0
sS'anwar'
p3989
F0.008663229132384574
sS'hishammuddin'
p3990
F0.008746154188258514
sS'khairul'
p3991
F0.0
sS'mca'
p3992
F0.0010387343904118527
sS'xinhua'
p3993
F0.002078409347465159
sS'ronald'
p3994
F0.00173138543597356
sS'digitalglobe'
p3995
F0.0010387343904118527
sS'taliban'
p3996
F0.0024249738217506246
sS'inmarsat'
p3997
F0.002687066048317918
sS'delavar'
p3998
F0.001385287707853075
sS'matthews'
p3999
F0.001385287707853075
sS'mahathir'
p4000
F0.001385287707853075
sS'francis'
p4001
F0.001731846914237754
sS'azharuddin'
p4002
F0.0024231253028937937
sS'phu'
p4003
F0.0010382931843614554
sS'kota'
p4004
F0.003808854216797265
sS'qaeda'
p4005
F0.0010387343904118527
sS'sabah'
p4006
F0.01663380568095278
sS'nicobar'
p4007
F0.0
sS'boeing'
p4008
F0.01688979588162203
sS'adams'
p4009
F0.0010387343904118527
sS'umno'
p4010
F0.0024249738217506246
sS'icao'
p4011
F0.0006921954562409703
sS'angus'
p4012
F0.00173137105270322
sS'hurley'
p4013
F0.0006921954562409703
sS'chunjiang'
p4014
I0
sS'hmas'
p4015
F0.0006921954562409703
sS'raaf'
p4016
F0.004157811466549702
sS'ntsb'
p4017
F0.0010387343904118527
sS'tho'
p4018
F0.0006921954562409703
sS'pham'
p4019
F0.0010382931843614554
sS'karpal'
p4020
F0.001385287707853075
sS'petaling'
p4021
F0.0006921954562409703
sS'maraldi'
p4022
F0.001384832118532338
sS'kozel'
p4023
F0.0010382931843614554
sS'interpol'
p4024
F0.006928864282808887
sS'hassan'
p4025
F0.0010387343904118527
sS'adenan'
p4026
F0.0010387343904118527
sS'roos'
p4027
F0.002770581304649607
sS'chunyong'
p4028
I0
ssS'boeing'
p4029
(dp4030
S'minh'
p4031
F0.018013459517592836
sS'manmohan'
p4032
F0.01706011585162908
sS'cocos'
p4033
F0.016267121742039082
sS'memali'
p4034
F0.020092803765907996
sS'rosmah'
p4035
I0
sS'ali'
p4036
F0.01688979588162203
sS'esscom'
p4037
F0.020439370679662977
sS'khalid'
p4038
F0.01461409021888323
sS'balingian'
p4039
F0.01835999845176372
sS'reuters'
p4040
F0.01136425524289583
sS'orion'
p4041
F0.019831628607550583
sS'zahid'
p4042
F0.018049021976432787
sS'rodzali'
p4043
F0.015689163263595655
sS'tony'
p4044
F0.017667837651631838
sS'klia'
p4045
F0.015405896392553877
sS'perak'
p4046
F0.018190143187071916
sS'osama'
p4047
F0.018013459517592836
sS'najib'
p4048
F0.019155286850351422
sS'facebook'
p4049
F0.015575740499568155
sS'zaharie'
p4050
F0.01635964242933815
sS'pouria'
p4051
F0.017582888133234137
sS'jackson'
p4052
F0.018013459517592836
sS'altantuyaa'
p4053
I0
sS'sulaiman'
p4054
I0
sS'fariq'
p4055
F0.01450659612780543
sS'pakatan'
p4056
F0.018706551769204938
sS'amsa'
p4057
F0.017582888133234137
sS'mukah'
p4058
F0.018013459517592836
sS'talbott'
p4059
F0.016579093713792584
sS'andaman'
p4060
F0.014451670314489325
sS'yahya'
p4061
F0.015709023213194444
sS'melanau'
p4062
F0.018013459517592836
sS'taib'
p4063
F0.02009233561122297
sS'lrb'
p4064
I0
sS'anwar'
p4065
F0.025984493193736434
sS'hishammuddin'
p4066
F0.01649499240649378
sS'khairul'
p4067
F0.01688979588162203
sS'mca'
p4068
F0.018359998451763712
sS'xinhua'
p4069
F0.017306796699092387
sS'ronald'
p4070
F0.016494620057554372
sS'digitalglobe'
p4071
F0.01611173383960676
sS'taliban'
p4072
F0.019746237883102487
sS'inmarsat'
p4073
F0.019053613786175403
sS'delavar'
p4074
F0.017582888133234137
sS'matthews'
p4075
F0.018706551769204938
sS'mahathir'
p4076
F0.018706551769204938
sS'francis'
p4077
F0.019053110975589618
sS'azharuddin'
p4078
F0.012656219786879312
sS'phu'
p4079
F0.01692519144191307
sS'kota'
p4080
F0.017143237124008694
sS'qaeda'
p4081
F0.018359998451763712
sS'sabah'
p4082
F0.03395506974230464
sS'nicobar'
p4083
F0.01688979588162203
sS'boeing'
p4084
F0.0
sS'adams'
p4085
F0.016267121742039082
sS'umno'
p4086
F0.019746237883102487
sS'icao'
p4087
F0.016579093713792584
sS'angus'
p4088
F0.017145065370026778
sS'hurley'
p4089
F0.0166628080852086
sS'chunjiang'
p4090
I0
sS'hmas'
p4091
F0.017321264061351864
sS'raaf'
p4092
F0.01868958215827162
sS'ntsb'
p4093
F0.016111733839606755
sS'tho'
p4094
F0.016579093713792584
sS'pham'
p4095
F0.01692519144191307
sS'karpal'
p4096
F0.018706551769204938
sS'petaling'
p4097
F0.018013459517592836
sS'maraldi'
p4098
F0.016628627399060496
sS'kozel'
p4099
F0.016713576917458194
sS'interpol'
p4100
F0.01746413291318792
sS'hassan'
p4101
F0.018359998451763716
sS'adenan'
p4102
F0.01835999845176372
sS'roos'
p4103
F0.015329059651271565
sS'chunyong'
p4104
I0
ssS'adams'
p4105
(dp4106
S'minh'
p4107
F0.0010387343904118527
sS'manmohan'
p4108
F0.00173137105270322
sS'cocos'
p4109
F0.0013852733245827348
sS'memali'
p4110
F0.0031180786387270116
sS'rosmah'
p4111
I0
sS'ali'
p4112
F0.001730929846652823
sS'esscom'
p4113
F0.0034646455524819956
sS'khalid'
p4114
F0.0072735155609654776
sS'balingian'
p4115
F0.0013852733245827348
sS'reuters'
p4116
F0.006580338205761463
sS'orion'
p4117
F0.004502883808624727
sS'zahid'
p4118
F0.002424948281636041
sS'rodzali'
p4119
F0.002078385848408636
sS'tony'
p4120
F0.0027705610324358096
sS'klia'
p4121
F0.0024235665089441904
sS'perak'
p4122
F0.0034636826720478935
sS'osama'
p4123
F0.0010387343904118527
sS'najib'
p4124
F0.008314125418868784
sS'facebook'
p4125
F0.0024244835765291216
sS'zaharie'
p4126
F0.009355261210322898
sS'pouria'
p4127
F0.0017318266420239571
sS'jackson'
p4128
F0.0010387343904118527
sS'altantuyaa'
p4129
I0
sS'sulaiman'
p4130
I0
sS'fariq'
p4131
F0.006928833977249705
sS'pakatan'
p4132
F0.0017318266420239571
sS'amsa'
p4133
F0.0017318266420239571
sS'mukah'
p4134
F0.0010387343904118527
sS'talbott'
p4135
F0.0010387343904118527
sS'andaman'
p4136
F0.0024231253028937933
sS'yahya'
p4137
F0.001730929846652823
sS'melanau'
p4138
F0.0010387343904118527
sS'taib'
p4139
F0.003117610484041992
sS'lrb'
p4140
I0
sS'anwar'
p4141
F0.009009768066555457
sS'hishammuddin'
p4142
F0.01004647799444355
sS'khairul'
p4143
F0.0010387343904118527
sS'mca'
p4144
F0.0013852733245827348
sS'xinhua'
p4145
F0.002424948281636041
sS'ronald'
p4146
F0.002077924370144442
sS'digitalglobe'
p4147
F0.0013852733245827348
sS'taliban'
p4148
F0.0027715127559215067
sS'inmarsat'
p4149
F0.004157268618459601
sS'delavar'
p4150
F0.0017318266420239571
sS'matthews'
p4151
F0.0017318266420239571
sS'mahathir'
p4152
F0.0017318266420239571
sS'francis'
p4153
F0.002078385848408636
sS'azharuddin'
p4154
F0.002769664237064676
sS'phu'
p4155
F0.0013848321185323377
sS'kota'
p4156
F0.004155393150968148
sS'qaeda'
p4157
F0.0013852733245827348
sS'sabah'
p4158
F0.016980344615123658
sS'nicobar'
p4159
F0.0010387343904118527
sS'boeing'
p4160
F0.016267121742039082
sS'adams'
p4161
F0.0
sS'umno'
p4162
F0.0027715127559215067
sS'icao'
p4163
F0.0010387343904118527
sS'angus'
p4164
F0.0020779099868741026
sS'hurley'
p4165
F0.0010387343904118527
sS'chunjiang'
p4166
I0
sS'hmas'
p4167
F0.0010387343904118527
sS'raaf'
p4168
F0.004504350400720584
sS'ntsb'
p4169
F0.0013852733245827348
sS'tho'
p4170
F0.0010387343904118527
sS'pham'
p4171
F0.0013848321185323377
sS'karpal'
p4172
F0.0017318266420239571
sS'petaling'
p4173
F0.0010387343904118527
sS'maraldi'
p4174
F0.00173137105270322
sS'kozel'
p4175
F0.001384832118532338
sS'interpol'
p4176
F0.007275403216979769
sS'hassan'
p4177
F0.0013852733245827348
sS'adenan'
p4178
F0.0013852733245827348
sS'roos'
p4179
F0.0031171202388204887
sS'chunyong'
p4180
I0
ssS'umno'
p4181
(dp4182
S'minh'
p4183
F0.0024249738217506246
sS'manmohan'
p4184
F0.0031176104840419916
sS'cocos'
p4185
F0.0027715127559215067
sS'memali'
p4186
F0.004504318070065783
sS'rosmah'
p4187
I0
sS'ali'
p4188
F0.0016828034741913473
sS'esscom'
p4189
F0.004850884983820768
sS'khalid'
p4190
F0.00865975499230425
sS'balingian'
p4191
F0.0027715127559215067
sS'reuters'
p4192
F0.007966577637100236
sS'orion'
p4193
F0.005889123239963498
sS'zahid'
p4194
F0.0038111877129748126
sS'rodzali'
p4195
F0.0034646252797474082
sS'tony'
p4196
F0.004156800463774582
sS'klia'
p4197
F0.003809805940282962
sS'perak'
p4198
F0.004849922103386666
sS'osama'
p4199
F0.0024249738217506246
sS'najib'
p4200
F0.00521529655965919
sS'facebook'
p4201
F0.003810723007867893
sS'zaharie'
p4202
F0.010741500641661671
sS'pouria'
p4203
F0.003118066073362729
sS'jackson'
p4204
F0.0024249738217506246
sS'altantuyaa'
p4205
I0
sS'sulaiman'
p4206
I0
sS'fariq'
p4207
F0.008315073408588477
sS'pakatan'
p4208
F0.0002548485551930958
sS'amsa'
p4209
F0.003118066073362729
sS'mukah'
p4210
F0.0024249738217506246
sS'talbott'
p4211
F0.0024249738217506246
sS'andaman'
p4212
F0.0038093647342325654
sS'yahya'
p4213
F0.0031171692779915945
sS'melanau'
p4214
F0.0024249738217506246
sS'taib'
p4215
F0.004503849915380763
sS'lrb'
p4216
I0
sS'anwar'
p4217
F0.002891171355326362
sS'hishammuddin'
p4218
F0.011432717425782321
sS'khairul'
p4219
F0.0024249738217506246
sS'mca'
p4220
F0.0005232481437645478
sS'xinhua'
p4221
F0.0038111877129748126
sS'ronald'
p4222
F0.003464163801483214
sS'digitalglobe'
p4223
F0.0027715127559215067
sS'taliban'
p4224
F0.004157752187260278
sS'inmarsat'
p4225
F0.005543508049798373
sS'delavar'
p4226
F0.003118066073362729
sS'matthews'
p4227
F0.003118066073362729
sS'mahathir'
p4228
F0.0002548485551930958
sS'francis'
p4229
F0.0034646252797474082
sS'azharuddin'
p4230
F0.004155903668403447
sS'phu'
p4231
F0.0027710715498711095
sS'kota'
p4232
F0.005541632582306919
sS'qaeda'
p4233
F0.0027715127559215067
sS'sabah'
p4234
F0.01836658404646243
sS'nicobar'
p4235
F0.0024249738217506246
sS'boeing'
p4236
F0.019746237883102487
sS'adams'
p4237
F0.0027715127559215067
sS'umno'
p4238
F0.0
sS'icao'
p4239
F0.0024249738217506246
sS'angus'
p4240
F0.0034641494182128746
sS'hurley'
p4241
F0.0024249738217506246
sS'chunjiang'
p4242
I0
sS'hmas'
p4243
F0.0024249738217506246
sS'raaf'
p4244
F0.005890589832059355
sS'ntsb'
p4245
F0.0027715127559215067
sS'tho'
p4246
F0.0024249738217506246
sS'pham'
p4247
F0.0027710715498711095
sS'karpal'
p4248
F0.003118066073362729
sS'petaling'
p4249
F0.0024249738217506246
sS'maraldi'
p4250
F0.003117610484041992
sS'kozel'
p4251
F0.0027710715498711095
sS'interpol'
p4252
F0.00866164264831854
sS'hassan'
p4253
F0.0027715127559215067
sS'adenan'
p4254
F0.0027715127559215067
sS'roos'
p4255
F0.004503359670159262
sS'chunyong'
p4256
I0
ssS'icao'
p4257
(dp4258
S'minh'
p4259
F0.0006921954562409703
sS'manmohan'
p4260
F0.001384832118532338
sS'cocos'
p4261
F0.0010387343904118527
sS'memali'
p4262
F0.002771539704556129
sS'rosmah'
p4263
I0
sS'ali'
p4264
F0.0013843909124819406
sS'esscom'
p4265
F0.0031181066183111135
sS'khalid'
p4266
F0.006926976626794596
sS'balingian'
p4267
F0.0010387343904118527
sS'reuters'
p4268
F0.005280014399576427
sS'orion'
p4269
F0.004156344874453844
sS'zahid'
p4270
F0.002078409347465159
sS'rodzali'
p4271
F0.001731846914237754
sS'tony'
p4272
F0.0024240220982649275
sS'klia'
p4273
F0.0020770275747733083
sS'perak'
p4274
F0.0031171437378770114
sS'osama'
p4275
F0.0006921954562409703
sS'najib'
p4276
F0.007967586484697902
sS'facebook'
p4277
F0.0020779446423582395
sS'zaharie'
p4278
F0.009008722276152016
sS'pouria'
p4279
F0.001385287707853075
sS'jackson'
p4280
F0.0006921954562409703
sS'altantuyaa'
p4281
I0
sS'sulaiman'
p4282
I0
sS'fariq'
p4283
F0.006582295043078824
sS'pakatan'
p4284
F0.001385287707853075
sS'amsa'
p4285
F0.001385287707853075
sS'mukah'
p4286
F0.0006921954562409703
sS'talbott'
p4287
F0.0006921954562409703
sS'andaman'
p4288
F0.0020765863687229108
sS'yahya'
p4289
F0.0013843909124819408
sS'melanau'
p4290
F0.0006921954562409703
sS'taib'
p4291
F0.0027710715498711095
sS'lrb'
p4292
I0
sS'anwar'
p4293
F0.008663229132384574
sS'hishammuddin'
p4294
F0.009699939060272667
sS'khairul'
p4295
F0.0006921954562409703
sS'mca'
p4296
F0.0010387343904118527
sS'xinhua'
p4297
F0.002078409347465159
sS'ronald'
p4298
F0.00173138543597356
sS'digitalglobe'
p4299
F0.0010387343904118527
sS'taliban'
p4300
F0.0024249738217506246
sS'inmarsat'
p4301
F0.003810729684288719
sS'delavar'
p4302
F0.001385287707853075
sS'matthews'
p4303
F0.001385287707853075
sS'mahathir'
p4304
F0.001385287707853075
sS'francis'
p4305
F0.001731846914237754
sS'azharuddin'
p4306
F0.0024231253028937937
sS'phu'
p4307
F0.0010382931843614554
sS'kota'
p4308
F0.003808854216797265
sS'qaeda'
p4309
F0.0010387343904118527
sS'sabah'
p4310
F0.01663380568095278
sS'nicobar'
p4311
F0.0006921954562409703
sS'boeing'
p4312
F0.016579093713792584
sS'adams'
p4313
F0.0010387343904118527
sS'umno'
p4314
F0.0024249738217506246
sS'icao'
p4315
F0.0
sS'angus'
p4316
F0.00173137105270322
sS'hurley'
p4317
F0.0006921954562409703
sS'chunjiang'
p4318
I0
sS'hmas'
p4319
F0.0006921954562409703
sS'raaf'
p4320
F0.004157811466549702
sS'ntsb'
p4321
F8.494951839769862e-05
sS'tho'
p4322
F0.0006921954562409703
sS'pham'
p4323
F0.0010382931843614554
sS'karpal'
p4324
F0.001385287707853075
sS'petaling'
p4325
F0.0006921954562409703
sS'maraldi'
p4326
F0.001384832118532338
sS'kozel'
p4327
F0.0010382931843614554
sS'interpol'
p4328
F0.006928864282808887
sS'hassan'
p4329
F0.0010387343904118527
sS'adenan'
p4330
F0.0010387343904118527
sS'roos'
p4331
F0.002770581304649607
sS'chunyong'
p4332
I0
ssS'angus'
p4333
(dp4334
S'minh'
p4335
F0.00173137105270322
sS'manmohan'
p4336
F0.0014702228429804335
sS'cocos'
p4337
F0.002077909986874102
sS'memali'
p4338
F0.0038107153010183787
sS'rosmah'
p4339
I0
sS'ali'
p4340
F0.0024235665089441904
sS'esscom'
p4341
F0.004157282214773363
sS'khalid'
p4342
F0.007012367351242691
sS'balingian'
p4343
F0.0020779099868741026
sS'reuters'
p4344
F0.005887701543470096
sS'orion'
p4345
F0.003810247146333359
sS'zahid'
p4346
F0.0031175849439274085
sS'rodzali'
p4347
F0.0027710225107000037
sS'tony'
p4348
F0.0017817098365799423
sS'klia'
p4349
F0.0031162031712355575
sS'perak'
p4350
F0.0041563193343392615
sS'osama'
p4351
F0.00173137105270322
sS'najib'
p4352
F0.008052977209145998
sS'facebook'
p4353
F0.0031171202388204896
sS'zaharie'
p4354
F0.010047897872614264
sS'pouria'
p4355
F0.0024244633043153246
sS'jackson'
p4356
F0.00173137105270322
sS'altantuyaa'
p4357
I0
sS'sulaiman'
p4358
I0
sS'fariq'
p4359
F0.007621470639541073
sS'pakatan'
p4360
F0.0024244633043153246
sS'amsa'
p4361
F0.0007429754461680896
sS'mukah'
p4362
F0.00173137105270322
sS'talbott'
p4363
F0.00173137105270322
sS'andaman'
p4364
F0.003115761965185161
sS'yahya'
p4365
F0.0024235665089441904
sS'melanau'
p4366
F0.00173137105270322
sS'taib'
p4367
F0.0038102471463333596
sS'lrb'
p4368
I0
sS'anwar'
p4369
F0.009702404728846824
sS'hishammuddin'
p4370
F0.009057626798587683
sS'khairul'
p4371
F0.00173137105270322
sS'mca'
p4372
F0.002077909986874102
sS'xinhua'
p4373
F0.0031175849439274085
sS'ronald'
p4374
F0.0027705610324358096
sS'digitalglobe'
p4375
F0.002077909986874102
sS'taliban'
p4376
F0.0034641494182128746
sS'inmarsat'
p4377
F0.004849905280750968
sS'delavar'
p4378
F0.0024244633043153246
sS'matthews'
p4379
F0.0024244633043153246
sS'mahathir'
p4380
F0.0024244633043153246
sS'francis'
p4381
F0.0027710225107000037
sS'azharuddin'
p4382
F0.003462300899356043
sS'phu'
p4383
F0.002077468780823705
sS'kota'
p4384
F0.0048480298132595155
sS'qaeda'
p4385
F0.002077909986874102
sS'sabah'
p4386
F0.017672981277415026
sS'nicobar'
p4387
F0.00173137105270322
sS'boeing'
p4388
F0.017145065370026778
sS'adams'
p4389
F0.0020779099868741026
sS'umno'
p4390
F0.0034641494182128746
sS'icao'
p4391
F0.00173137105270322
sS'angus'
p4392
F0.0
sS'hurley'
p4393
F0.00173137105270322
sS'chunjiang'
p4394
I0
sS'hmas'
p4395
F0.0007775861806890661
sS'raaf'
p4396
F0.005196987063011952
sS'ntsb'
p4397
F0.0020779099868741026
sS'tho'
p4398
F0.00173137105270322
sS'pham'
p4399
F0.002077468780823705
sS'karpal'
p4400
F0.0024244633043153246
sS'petaling'
p4401
F0.00173137105270322
sS'maraldi'
p4402
F0.0024240077149945876
sS'kozel'
p4403
F0.0020774687808237055
sS'interpol'
p4404
F0.007968039879271136
sS'hassan'
p4405
F0.002077909986874102
sS'adenan'
p4406
F0.0020779099868741026
sS'roos'
p4407
F0.0038097569011118567
sS'chunyong'
p4408
I0
ssS'hurley'
p4409
(dp4410
S'minh'
p4411
F0.0006921954562409703
sS'manmohan'
p4412
F0.001384832118532338
sS'cocos'
p4413
F8.494951839769862e-05
sS'memali'
p4414
F0.002771539704556129
sS'rosmah'
p4415
I0
sS'ali'
p4416
F0.0013843909124819406
sS'esscom'
p4417
F0.0031181066183111135
sS'khalid'
p4418
F0.005973191754780441
sS'balingian'
p4419
F0.0010387343904118527
sS'reuters'
p4420
F0.0062337992715905816
sS'orion'
p4421
F0.004156344874453844
sS'zahid'
p4422
F0.002078409347465159
sS'rodzali'
p4423
F0.001731846914237754
sS'tony'
p4424
F0.0024240220982649275
sS'klia'
p4425
F0.0020770275747733083
sS'perak'
p4426
F0.0031171437378770114
sS'osama'
p4427
F0.0006921954562409703
sS'najib'
p4428
F0.007967586484697902
sS'facebook'
p4429
F0.0020779446423582395
sS'zaharie'
p4430
F0.009008722276152016
sS'pouria'
p4431
F0.001385287707853075
sS'jackson'
p4432
F0.0006921954562409703
sS'altantuyaa'
p4433
I0
sS'sulaiman'
p4434
I0
sS'fariq'
p4435
F0.006582295043078824
sS'pakatan'
p4436
F0.001385287707853075
sS'amsa'
p4437
F0.001385287707853075
sS'mukah'
p4438
F0.0006921954562409703
sS'talbott'
p4439
F0.0006921954562409703
sS'andaman'
p4440
F0.0020765863687229108
sS'yahya'
p4441
F0.0006921954562409703
sS'melanau'
p4442
F0.0006921954562409703
sS'taib'
p4443
F0.0027710715498711095
sS'lrb'
p4444
I0
sS'anwar'
p4445
F0.008663229132384574
sS'hishammuddin'
p4446
F0.008746154188258512
sS'khairul'
p4447
F0.0006921954562409703
sS'mca'
p4448
F0.0010387343904118527
sS'xinhua'
p4449
F0.002078409347465159
sS'ronald'
p4450
F0.00173138543597356
sS'digitalglobe'
p4451
F0.0010387343904118527
sS'taliban'
p4452
F0.0024249738217506246
sS'inmarsat'
p4453
F0.003810729684288719
sS'delavar'
p4454
F0.001385287707853075
sS'matthews'
p4455
F0.001385287707853075
sS'mahathir'
p4456
F0.001385287707853075
sS'francis'
p4457
F0.001731846914237754
sS'azharuddin'
p4458
F0.001469340430879639
sS'phu'
p4459
F0.0010382931843614554
sS'kota'
p4460
F0.003808854216797265
sS'qaeda'
p4461
F0.0010387343904118527
sS'sabah'
p4462
F0.01663380568095278
sS'nicobar'
p4463
F0.0006921954562409703
sS'boeing'
p4464
F0.0166628080852086
sS'adams'
p4465
F0.0010387343904118527
sS'umno'
p4466
F0.0024249738217506246
sS'icao'
p4467
F0.0006921954562409703
sS'angus'
p4468
F0.00173137105270322
sS'hurley'
p4469
F0.0
sS'chunjiang'
p4470
I0
sS'hmas'
p4471
F0.0006921954562409703
sS'raaf'
p4472
F0.004157811466549702
sS'ntsb'
p4473
F0.0010387343904118527
sS'tho'
p4474
F0.0006921954562409703
sS'pham'
p4475
F0.0010382931843614554
sS'karpal'
p4476
F0.001385287707853075
sS'petaling'
p4477
F0.0006921954562409703
sS'maraldi'
p4478
F0.001384832118532338
sS'kozel'
p4479
F0.0010382931843614554
sS'interpol'
p4480
F0.006928864282808887
sS'hassan'
p4481
F0.0010387343904118527
sS'adenan'
p4482
F0.0010387343904118527
sS'roos'
p4483
F0.002770581304649607
sS'chunyong'
p4484
I0
ssS'chunjiang'
p4485
(dp4486
S'minh'
p4487
I0
sS'manmohan'
p4488
I0
sS'cocos'
p4489
I0
sS'memali'
p4490
I0
sS'rosmah'
p4491
I0
sS'ali'
p4492
I0
sS'esscom'
p4493
I0
sS'khalid'
p4494
I0
sS'balingian'
p4495
I0
sS'reuters'
p4496
I0
sS'orion'
p4497
I0
sS'zahid'
p4498
I0
sS'rodzali'
p4499
I0
sS'tony'
p4500
I0
sS'klia'
p4501
I0
sS'perak'
p4502
I0
sS'osama'
p4503
I0
sS'najib'
p4504
I0
sS'facebook'
p4505
I0
sS'zaharie'
p4506
I0
sS'pouria'
p4507
I0
sS'jackson'
p4508
I0
sS'altantuyaa'
p4509
I0
sS'sulaiman'
p4510
I0
sS'fariq'
p4511
I0
sS'pakatan'
p4512
I0
sS'amsa'
p4513
I0
sS'mukah'
p4514
I0
sS'talbott'
p4515
I0
sS'andaman'
p4516
I0
sS'yahya'
p4517
I0
sS'melanau'
p4518
I0
sS'taib'
p4519
I0
sS'lrb'
p4520
I0
sS'anwar'
p4521
I0
sS'hishammuddin'
p4522
I0
sS'khairul'
p4523
I0
sS'mca'
p4524
I0
sS'xinhua'
p4525
I0
sS'ronald'
p4526
I0
sS'digitalglobe'
p4527
I0
sS'taliban'
p4528
I0
sS'inmarsat'
p4529
I0
sS'delavar'
p4530
I0
sS'matthews'
p4531
I0
sS'mahathir'
p4532
I0
sS'francis'
p4533
I0
sS'azharuddin'
p4534
I0
sS'phu'
p4535
I0
sS'kota'
p4536
I0
sS'qaeda'
p4537
I0
sS'sabah'
p4538
I0
sS'nicobar'
p4539
I0
sS'boeing'
p4540
I0
sS'adams'
p4541
I0
sS'umno'
p4542
I0
sS'icao'
p4543
I0
sS'angus'
p4544
I0
sS'hurley'
p4545
I0
sS'chunjiang'
p4546
I0
sS'hmas'
p4547
I0
sS'raaf'
p4548
I0
sS'ntsb'
p4549
I0
sS'tho'
p4550
I0
sS'pham'
p4551
I0
sS'karpal'
p4552
I0
sS'petaling'
p4553
I0
sS'maraldi'
p4554
I0
sS'kozel'
p4555
I0
sS'interpol'
p4556
I0
sS'hassan'
p4557
I0
sS'adenan'
p4558
I0
sS'roos'
p4559
I0
sS'chunyong'
p4560
I0
ssS'hmas'
p4561
(dp4562
S'minh'
p4563
F0.0006921954562409703
sS'manmohan'
p4564
F0.0006926366622913674
sS'cocos'
p4565
F0.0010387343904118527
sS'memali'
p4566
F0.002771539704556129
sS'rosmah'
p4567
I0
sS'ali'
p4568
F0.0013843909124819406
sS'esscom'
p4569
F0.0031181066183111135
sS'khalid'
p4570
F0.006234781170553625
sS'balingian'
p4571
F0.0010387343904118527
sS'reuters'
p4572
F0.005280014399576427
sS'orion'
p4573
F0.0032025600024396905
sS'zahid'
p4574
F0.002078409347465159
sS'rodzali'
p4575
F0.001731846914237754
sS'tony'
p4576
F0.0013003584622941265
sS'klia'
p4577
F0.0020770275747733083
sS'perak'
p4578
F0.0031171437378770114
sS'osama'
p4579
F0.0006921954562409703
sS'najib'
p4580
F0.007275391028456931
sS'facebook'
p4581
F0.0020779446423582395
sS'zaharie'
p4582
F0.009008722276152016
sS'pouria'
p4583
F0.001385287707853075
sS'jackson'
p4584
F0.0006921954562409703
sS'altantuyaa'
p4585
I0
sS'sulaiman'
p4586
I0
sS'fariq'
p4587
F0.006582295043078824
sS'pakatan'
p4588
F0.001385287707853075
sS'amsa'
p4589
F0.0002616240718822739
sS'mukah'
p4590
F0.0006921954562409703
sS'talbott'
p4591
F0.0006921954562409703
sS'andaman'
p4592
F0.0020765863687229108
sS'yahya'
p4593
F0.0013843909124819406
sS'melanau'
p4594
F0.0006921954562409703
sS'taib'
p4595
F0.0027710715498711095
sS'lrb'
p4596
I0
sS'anwar'
p4597
F0.008663229132384574
sS'hishammuddin'
p4598
F0.008576275424301866
sS'khairul'
p4599
F0.0006921954562409703
sS'mca'
p4600
F0.0010387343904118527
sS'xinhua'
p4601
F0.002078409347465159
sS'ronald'
p4602
F0.00173138543597356
sS'digitalglobe'
p4603
F0.0010387343904118527
sS'taliban'
p4604
F0.0024249738217506246
sS'inmarsat'
p4605
F0.003810729684288719
sS'delavar'
p4606
F0.001385287707853075
sS'matthews'
p4607
F0.001385287707853075
sS'mahathir'
p4608
F0.001385287707853075
sS'francis'
p4609
F0.001731846914237754
sS'azharuddin'
p4610
F0.0024231253028937933
sS'phu'
p4611
F0.0010382931843614554
sS'kota'
p4612
F0.003808854216797265
sS'qaeda'
p4613
F0.0010387343904118527
sS'sabah'
p4614
F0.01663380568095278
sS'nicobar'
p4615
F0.0006921954562409703
sS'boeing'
p4616
F0.017321264061351864
sS'adams'
p4617
F0.0010387343904118527
sS'umno'
p4618
F0.0024249738217506246
sS'icao'
p4619
F0.0006921954562409703
sS'angus'
p4620
F0.0007775861806890661
sS'hurley'
p4621
F0.0006921954562409703
sS'chunjiang'
p4622
I0
sS'hmas'
p4623
F0.0
sS'raaf'
p4624
F0.004157811466549702
sS'ntsb'
p4625
F0.0010387343904118527
sS'tho'
p4626
F0.0006921954562409703
sS'pham'
p4627
F0.0010382931843614554
sS'karpal'
p4628
F0.001385287707853075
sS'petaling'
p4629
F0.0006921954562409703
sS'maraldi'
p4630
F0.001384832118532338
sS'kozel'
p4631
F0.0010382931843614554
sS'interpol'
p4632
F0.006928864282808887
sS'hassan'
p4633
F0.0010387343904118527
sS'adenan'
p4634
F0.0010387343904118527
sS'roos'
p4635
F0.002770581304649607
sS'chunyong'
p4636
I0
ssS'raaf'
p4637
(dp4638
S'minh'
p4639
F0.004157811466549702
sS'manmohan'
p4640
F0.004850448128841069
sS'cocos'
p4641
F0.004504350400720584
sS'memali'
p4642
F0.00623715571486486
sS'rosmah'
p4643
I0
sS'ali'
p4644
F0.0048500069227906725
sS'esscom'
p4645
F0.006583722628619844
sS'khalid'
p4646
F0.010392592637103328
sS'balingian'
p4647
F0.004504350400720584
sS'reuters'
p4648
F0.009699415281899312
sS'orion'
p4649
F0.007621960884762575
sS'zahid'
p4650
F0.00554402535777389
sS'rodzali'
p4651
F0.005197462924546485
sS'tony'
p4652
F0.004169693827046665
sS'klia'
p4653
F0.00554264358508204
sS'perak'
p4654
F0.006582759748185743
sS'osama'
p4655
F0.004157811466549702
sS'najib'
p4656
F0.011433202495006633
sS'facebook'
p4657
F0.00554356065266697
sS'zaharie'
p4658
F0.012474338286460747
sS'pouria'
p4659
F0.004850903718161806
sS'jackson'
p4660
F0.004157811466549702
sS'altantuyaa'
p4661
I0
sS'sulaiman'
p4662
I0
sS'fariq'
p4663
F0.010047911053387554
sS'pakatan'
p4664
F0.004850903718161806
sS'amsa'
p4665
F0.004850903718161806
sS'mukah'
p4666
F0.004157811466549702
sS'talbott'
p4667
F0.004157811466549702
sS'andaman'
p4668
F0.005542202379031642
sS'yahya'
p4669
F0.003130062641263678
sS'melanau'
p4670
F0.004157811466549702
sS'taib'
p4671
F0.00623668756017984
sS'lrb'
p4672
I0
sS'anwar'
p4673
F0.012128845142693308
sS'hishammuddin'
p4674
F0.011445610789054405
sS'khairul'
p4675
F0.004157811466549702
sS'mca'
p4676
F0.004504350400720584
sS'xinhua'
p4677
F0.00554402535777389
sS'ronald'
p4678
F0.005197001446282291
sS'digitalglobe'
p4679
F0.004504350400720584
sS'taliban'
p4680
F0.005890589832059355
sS'inmarsat'
p4681
F0.007276345694597451
sS'delavar'
p4682
F0.004850903718161806
sS'matthews'
p4683
F0.004850903718161806
sS'mahathir'
p4684
F0.004850903718161806
sS'francis'
p4685
F0.005197462924546485
sS'azharuddin'
p4686
F0.005888741313202524
sS'phu'
p4687
F0.004503909194670187
sS'kota'
p4688
F0.007274470227105997
sS'qaeda'
p4689
F0.004504350400720584
sS'sabah'
p4690
F0.02009942169126151
sS'nicobar'
p4691
F0.004157811466549702
sS'boeing'
p4692
F0.01868958215827162
sS'adams'
p4693
F0.004504350400720584
sS'umno'
p4694
F0.005890589832059355
sS'icao'
p4695
F0.004157811466549702
sS'angus'
p4696
F0.005196987063011952
sS'hurley'
p4697
F0.004157811466549702
sS'chunjiang'
p4698
I0
sS'hmas'
p4699
F0.004157811466549702
sS'raaf'
p4700
F0.0
sS'ntsb'
p4701
F0.004504350400720584
sS'tho'
p4702
F0.004157811466549702
sS'pham'
p4703
F0.004503909194670187
sS'karpal'
p4704
F0.004850903718161806
sS'petaling'
p4705
F0.004157811466549702
sS'maraldi'
p4706
F0.002060954759211124
sS'kozel'
p4707
F0.002783964913143193
sS'interpol'
p4708
F0.006046257437134965
sS'hassan'
p4709
F0.004504350400720584
sS'adenan'
p4710
F0.004504350400720584
sS'roos'
p4711
F0.006236197314958338
sS'chunyong'
p4712
I0
ssS'ntsb'
p4713
(dp4714
S'minh'
p4715
F0.0010387343904118527
sS'manmohan'
p4716
F0.00173137105270322
sS'cocos'
p4717
F0.0013852733245827348
sS'memali'
p4718
F0.0031180786387270116
sS'rosmah'
p4719
I0
sS'ali'
p4720
F0.001730929846652823
sS'esscom'
p4721
F0.0034646455524819956
sS'khalid'
p4722
F0.0072735155609654776
sS'balingian'
p4723
F0.0013852733245827348
sS'reuters'
p4724
F0.005195064881178728
sS'orion'
p4725
F0.004502883808624727
sS'zahid'
p4726
F0.002424948281636041
sS'rodzali'
p4727
F0.002078385848408636
sS'tony'
p4728
F0.0027705610324358096
sS'klia'
p4729
F0.0024235665089441904
sS'perak'
p4730
F0.003463682672047894
sS'osama'
p4731
F0.0010387343904118527
sS'najib'
p4732
F0.008314125418868784
sS'facebook'
p4733
F0.0024244835765291216
sS'zaharie'
p4734
F0.0093552612103229
sS'pouria'
p4735
F0.0017318266420239571
sS'jackson'
p4736
F0.0010387343904118527
sS'altantuyaa'
p4737
I0
sS'sulaiman'
p4738
I0
sS'fariq'
p4739
F0.006928833977249705
sS'pakatan'
p4740
F0.0017318266420239571
sS'amsa'
p4741
F0.0017318266420239571
sS'mukah'
p4742
F0.0010387343904118527
sS'talbott'
p4743
F0.0010387343904118527
sS'andaman'
p4744
F0.0024231253028937933
sS'yahya'
p4745
F0.001730929846652823
sS'melanau'
p4746
F0.0010387343904118527
sS'taib'
p4747
F0.003117610484041992
sS'lrb'
p4748
I0
sS'anwar'
p4749
F0.009009768066555457
sS'hishammuddin'
p4750
F0.01004647799444355
sS'khairul'
p4751
F0.0010387343904118527
sS'mca'
p4752
F0.0013852733245827348
sS'xinhua'
p4753
F0.002424948281636041
sS'ronald'
p4754
F0.002077924370144442
sS'digitalglobe'
p4755
F0.0013852733245827348
sS'taliban'
p4756
F0.0027715127559215067
sS'inmarsat'
p4757
F0.004157268618459602
sS'delavar'
p4758
F0.0017318266420239571
sS'matthews'
p4759
F0.0017318266420239571
sS'mahathir'
p4760
F0.0017318266420239571
sS'francis'
p4761
F0.002078385848408636
sS'azharuddin'
p4762
F0.002769664237064676
sS'phu'
p4763
F0.0013848321185323377
sS'kota'
p4764
F0.004155393150968148
sS'qaeda'
p4765
F0.0013852733245827348
sS'sabah'
p4766
F0.016980344615123658
sS'nicobar'
p4767
F0.0010387343904118527
sS'boeing'
p4768
F0.016111733839606755
sS'adams'
p4769
F0.0013852733245827348
sS'umno'
p4770
F0.0027715127559215067
sS'icao'
p4771
F8.494951839769862e-05
sS'angus'
p4772
F0.0020779099868741026
sS'hurley'
p4773
F0.0010387343904118527
sS'chunjiang'
p4774
I0
sS'hmas'
p4775
F0.0010387343904118527
sS'raaf'
p4776
F0.004504350400720584
sS'ntsb'
p4777
F0.0
sS'tho'
p4778
F0.0010387343904118527
sS'pham'
p4779
F0.0013848321185323377
sS'karpal'
p4780
F0.0017318266420239571
sS'petaling'
p4781
F0.0010387343904118527
sS'maraldi'
p4782
F0.00173137105270322
sS'kozel'
p4783
F0.001384832118532338
sS'interpol'
p4784
F0.007275403216979769
sS'hassan'
p4785
F0.0013852733245827348
sS'adenan'
p4786
F0.0013852733245827348
sS'roos'
p4787
F0.0031171202388204887
sS'chunyong'
p4788
I0
ssS'tho'
p4789
(dp4790
S'minh'
p4791
F0.0006921954562409703
sS'manmohan'
p4792
F0.0013848321185323377
sS'cocos'
p4793
F0.0010387343904118527
sS'memali'
p4794
F0.002771539704556129
sS'rosmah'
p4795
I0
sS'ali'
p4796
F0.0013843909124819406
sS'esscom'
p4797
F0.0031181066183111135
sS'khalid'
p4798
F0.006234781170553625
sS'balingian'
p4799
F0.0010387343904118527
sS'reuters'
p4800
F0.005541603815349611
sS'orion'
p4801
F0.004156344874453844
sS'zahid'
p4802
F0.002078409347465159
sS'rodzali'
p4803
F0.001731846914237754
sS'tony'
p4804
F0.0024240220982649275
sS'klia'
p4805
F0.0020770275747733083
sS'perak'
p4806
F0.0031171437378770114
sS'osama'
p4807
F0.0006921954562409703
sS'najib'
p4808
F0.007967586484697902
sS'facebook'
p4809
F0.0020779446423582395
sS'zaharie'
p4810
F0.007885058640181216
sS'pouria'
p4811
F0.001385287707853075
sS'jackson'
p4812
F0.0006921954562409703
sS'altantuyaa'
p4813
I0
sS'sulaiman'
p4814
I0
sS'fariq'
p4815
F0.00562851017106467
sS'pakatan'
p4816
F0.001385287707853075
sS'amsa'
p4817
F0.001385287707853075
sS'mukah'
p4818
F0.0006921954562409703
sS'talbott'
p4819
F0.0006921954562409703
sS'andaman'
p4820
F0.0013843909124819406
sS'yahya'
p4821
F0.0013843909124819406
sS'melanau'
p4822
F0.0006921954562409703
sS'taib'
p4823
F0.0027710715498711095
sS'lrb'
p4824
I0
sS'anwar'
p4825
F0.008663229132384574
sS'hishammuddin'
p4826
F0.009699939060272667
sS'khairul'
p4827
F0.0006921954562409703
sS'mca'
p4828
F0.0010387343904118527
sS'xinhua'
p4829
F0.002078409347465159
sS'ronald'
p4830
F0.00173138543597356
sS'digitalglobe'
p4831
F8.494951839769862e-05
sS'taliban'
p4832
F0.0024249738217506246
sS'inmarsat'
p4833
F0.003810729684288719
sS'delavar'
p4834
F0.001385287707853075
sS'matthews'
p4835
F0.001385287707853075
sS'mahathir'
p4836
F0.001385287707853075
sS'francis'
p4837
F0.001731846914237754
sS'azharuddin'
p4838
F0.0017309298466528231
sS'phu'
p4839
F0.00034609772812048515
sS'kota'
p4840
F0.003808854216797265
sS'qaeda'
p4841
F0.0010387343904118527
sS'sabah'
p4842
F0.01663380568095278
sS'nicobar'
p4843
F0.0006921954562409703
sS'boeing'
p4844
F0.016579093713792584
sS'adams'
p4845
F0.0010387343904118527
sS'umno'
p4846
F0.0024249738217506246
sS'icao'
p4847
F0.0006921954562409703
sS'angus'
p4848
F0.00173137105270322
sS'hurley'
p4849
F0.0006921954562409703
sS'chunjiang'
p4850
I0
sS'hmas'
p4851
F0.0006921954562409703
sS'raaf'
p4852
F0.004157811466549702
sS'ntsb'
p4853
F0.0010387343904118527
sS'tho'
p4854
F0.0
sS'pham'
p4855
F0.00034609772812048515
sS'karpal'
p4856
F0.001385287707853075
sS'petaling'
p4857
F0.0006921954562409703
sS'maraldi'
p4858
F0.001384832118532338
sS'kozel'
p4859
F0.0010382931843614554
sS'interpol'
p4860
F0.006236668826567916
sS'hassan'
p4861
F0.0010387343904118527
sS'adenan'
p4862
F0.0010387343904118527
sS'roos'
p4863
F0.002770581304649607
sS'chunyong'
p4864
I0
ssS'pham'
p4865
(dp4866
S'minh'
p4867
F0.00034609772812048515
sS'manmohan'
p4868
F0.001730929846652823
sS'cocos'
p4869
F0.0013848321185323377
sS'memali'
p4870
F0.0031176374326766145
sS'rosmah'
p4871
I0
sS'ali'
p4872
F0.0017304886406024258
sS'esscom'
p4873
F0.0018955156093465953
sS'khalid'
p4874
F0.00658087889867411
sS'balingian'
p4875
F0.0013848321185323377
sS'reuters'
p4876
F0.005887701543470096
sS'orion'
p4877
F0.00450244260257433
sS'zahid'
p4878
F0.002424507075585644
sS'rodzali'
p4879
F0.0020779446423582395
sS'tony'
p4880
F0.0027701198263854125
sS'klia'
p4881
F0.0014693404308796392
sS'perak'
p4882
F0.0034632414659974964
sS'osama'
p4883
F0.0010382931843614554
sS'najib'
p4884
F0.008313684212818386
sS'facebook'
p4885
F0.0024240423704787245
sS'zaharie'
p4886
F0.0082311563683017
sS'pouria'
p4887
F0.00173138543597356
sS'jackson'
p4888
F0.0010382931843614554
sS'altantuyaa'
p4889
I0
sS'sulaiman'
p4890
I0
sS'fariq'
p4891
F0.005974607899185154
sS'pakatan'
p4892
F0.00173138543597356
sS'amsa'
p4893
F0.00173138543597356
sS'mukah'
p4894
F0.0010382931843614554
sS'talbott'
p4895
F0.0010382931843614554
sS'andaman'
p4896
F0.0017304886406024258
sS'yahya'
p4897
F0.0017304886406024258
sS'melanau'
p4898
F0.0010382931843614554
sS'taib'
p4899
F0.0031171692779915945
sS'lrb'
p4900
I0
sS'anwar'
p4901
F0.009009326860505061
sS'hishammuddin'
p4902
F0.010046036788393152
sS'khairul'
p4903
F0.0010382931843614554
sS'mca'
p4904
F0.0013848321185323377
sS'xinhua'
p4905
F0.002424507075585644
sS'ronald'
p4906
F0.0020774831640940454
sS'digitalglobe'
p4907
F0.00043104724651818374
sS'taliban'
p4908
F0.0027710715498711095
sS'inmarsat'
p4909
F0.004156827412409204
sS'delavar'
p4910
F0.00173138543597356
sS'matthews'
p4911
F0.00173138543597356
sS'mahathir'
p4912
F0.00173138543597356
sS'francis'
p4913
F0.000827959620674879
sS'azharuddin'
p4914
F0.0020770275747733083
sS'phu'
p4915
F0.0
sS'kota'
p4916
F0.00346275648867678
sS'qaeda'
p4917
F0.0013848321185323377
sS'sabah'
p4918
F0.014682393815200517
sS'nicobar'
p4919
F0.0010382931843614554
sS'boeing'
p4920
F0.01692519144191307
sS'adams'
p4921
F0.0013848321185323377
sS'umno'
p4922
F0.0027710715498711095
sS'icao'
p4923
F0.0010382931843614554
sS'angus'
p4924
F0.002077468780823705
sS'hurley'
p4925
F0.0010382931843614554
sS'chunjiang'
p4926
I0
sS'hmas'
p4927
F0.0010382931843614554
sS'raaf'
p4928
F0.004503909194670187
sS'ntsb'
p4929
F0.0013848321185323377
sS'tho'
p4930
F0.00034609772812048515
sS'pham'
p4931
F0.0
sS'karpal'
p4932
F0.00173138543597356
sS'petaling'
p4933
F0.0010382931843614554
sS'maraldi'
p4934
F0.001730929846652823
sS'kozel'
p4935
F0.0013843909124819408
sS'interpol'
p4936
F0.006582766554688401
sS'hassan'
p4937
F0.001384832118532338
sS'adenan'
p4938
F0.0013848321185323377
sS'roos'
p4939
F0.0031166790327700916
sS'chunyong'
p4940
I0
ssS'karpal'
p4941
(dp4942
S'minh'
p4943
F0.001385287707853075
sS'manmohan'
p4944
F0.0020779243701444425
sS'cocos'
p4945
F0.0017318266420239571
sS'memali'
p4946
F0.0034646319561682337
sS'rosmah'
p4947
I0
sS'ali'
p4948
F0.0020774831640940454
sS'esscom'
p4949
F0.0038111988699232177
sS'khalid'
p4950
F0.0076200688784067005
sS'balingian'
p4951
F0.0017318266420239571
sS'reuters'
p4952
F0.006926891523202686
sS'orion'
p4953
F0.004849437126065949
sS'zahid'
p4954
F0.0027715015990772635
sS'rodzali'
p4955
F0.002424939165849859
sS'tony'
p4956
F0.003117114349877032
sS'klia'
p4957
F0.002770119826385413
sS'perak'
p4958
F0.0026865723535183152
sS'osama'
p4959
F0.001385287707853075
sS'najib'
p4960
F0.008660678736310008
sS'facebook'
p4961
F0.002771036893970344
sS'zaharie'
p4962
F0.00970181452776412
sS'pouria'
p4963
F0.0020783799594651796
sS'jackson'
p4964
F0.001385287707853075
sS'altantuyaa'
p4965
I0
sS'sulaiman'
p4966
I0
sS'fariq'
p4967
F0.007275387294690928
sS'pakatan'
p4968
F0.0020783799594651796
sS'amsa'
p4969
F0.0020783799594651796
sS'mukah'
p4970
F0.001385287707853075
sS'talbott'
p4971
F0.001385287707853075
sS'andaman'
p4972
F0.0027696786203350154
sS'yahya'
p4973
F0.0020774831640940454
sS'melanau'
p4974
F0.001385287707853075
sS'taib'
p4975
F0.003464163801483214
sS'lrb'
p4976
I0
sS'anwar'
p4977
F0.009356321383996679
sS'hishammuddin'
p4978
F0.010393031311884772
sS'khairul'
p4979
F0.001385287707853075
sS'mca'
p4980
F0.0017318266420239571
sS'xinhua'
p4981
F0.0027715015990772635
sS'ronald'
p4982
F0.002424477687585665
sS'digitalglobe'
p4983
F0.0017318266420239571
sS'taliban'
p4984
F0.003118066073362729
sS'inmarsat'
p4985
F0.004503821935900824
sS'delavar'
p4986
F0.0020783799594651796
sS'matthews'
p4987
F0.0020783799594651796
sS'mahathir'
p4988
F0.0020783799594651796
sS'francis'
p4989
F0.002424939165849859
sS'azharuddin'
p4990
F0.0031162175545058983
sS'phu'
p4991
F0.00173138543597356
sS'kota'
p4992
F0.00450194646840937
sS'qaeda'
p4993
F0.0017318266420239571
sS'sabah'
p4994
F0.01732689793256488
sS'nicobar'
p4995
F0.001385287707853075
sS'boeing'
p4996
F0.018706551769204938
sS'adams'
p4997
F0.0017318266420239571
sS'umno'
p4998
F0.003118066073362729
sS'icao'
p4999
F0.001385287707853075
sS'angus'
p5000
F0.0024244633043153246
sS'hurley'
p5001
F0.001385287707853075
sS'chunjiang'
p5002
I0
sS'hmas'
p5003
F0.001385287707853075
sS'raaf'
p5004
F0.004850903718161806
sS'ntsb'
p5005
F0.0017318266420239571
sS'tho'
p5006
F0.001385287707853075
sS'pham'
p5007
F0.00173138543597356
sS'karpal'
p5008
F0.0
sS'petaling'
p5009
F0.001385287707853075
sS'maraldi'
p5010
F0.002077924370144442
sS'kozel'
p5011
F0.00173138543597356
sS'interpol'
p5012
F0.007621956534420991
sS'hassan'
p5013
F0.0017318266420239571
sS'adenan'
p5014
F0.0017318266420239571
sS'roos'
p5015
F0.003463673556261711
sS'chunyong'
p5016
I0
ssS'petaling'
p5017
(dp5018
S'minh'
p5019
F0.0006921954562409703
sS'manmohan'
p5020
F0.001384832118532338
sS'cocos'
p5021
F0.0010387343904118527
sS'memali'
p5022
F0.002771539704556129
sS'rosmah'
p5023
I0
sS'ali'
p5024
F0.0013843909124819408
sS'esscom'
p5025
F0.0031181066183111135
sS'khalid'
p5026
F0.006926976626794596
sS'balingian'
p5027
F8.494951839769862e-05
sS'reuters'
p5028
F0.0062337992715905816
sS'orion'
p5029
F0.004156344874453844
sS'zahid'
p5030
F0.002078409347465159
sS'rodzali'
p5031
F0.001731846914237754
sS'tony'
p5032
F0.0024240220982649275
sS'klia'
p5033
F0.0020770275747733083
sS'perak'
p5034
F0.0031171437378770114
sS'osama'
p5035
F0.0006921954562409703
sS'najib'
p5036
F0.007967586484697902
sS'facebook'
p5037
F0.0020779446423582395
sS'zaharie'
p5038
F0.009008722276152016
sS'pouria'
p5039
F0.001385287707853075
sS'jackson'
p5040
F0.0006921954562409703
sS'altantuyaa'
p5041
I0
sS'sulaiman'
p5042
I0
sS'fariq'
p5043
F0.006582295043078824
sS'pakatan'
p5044
F0.001385287707853075
sS'amsa'
p5045
F0.001385287707853075
sS'mukah'
p5046
F0.0
sS'talbott'
p5047
F0.0006921954562409703
sS'andaman'
p5048
F0.0020765863687229108
sS'yahya'
p5049
F0.0013843909124819408
sS'melanau'
p5050
F0.0
sS'taib'
p5051
F0.002078876093630139
sS'lrb'
p5052
I0
sS'anwar'
p5053
F0.008663229132384574
sS'hishammuddin'
p5054
F0.009699939060272667
sS'khairul'
p5055
F0.0006921954562409703
sS'mca'
p5056
F0.0010387343904118527
sS'xinhua'
p5057
F0.002078409347465159
sS'ronald'
p5058
F0.00173138543597356
sS'digitalglobe'
p5059
F0.0010387343904118527
sS'taliban'
p5060
F0.0024249738217506246
sS'inmarsat'
p5061
F0.003810729684288719
sS'delavar'
p5062
F0.001385287707853075
sS'matthews'
p5063
F0.001385287707853075
sS'mahathir'
p5064
F0.001385287707853075
sS'francis'
p5065
F0.001731846914237754
sS'azharuddin'
p5066
F0.0024231253028937937
sS'phu'
p5067
F0.0010382931843614554
sS'kota'
p5068
F0.003116658760556295
sS'qaeda'
p5069
F0.0010387343904118527
sS'sabah'
p5070
F0.014913861399425783
sS'nicobar'
p5071
F0.0006921954562409703
sS'boeing'
p5072
F0.018013459517592836
sS'adams'
p5073
F0.0010387343904118527
sS'umno'
p5074
F0.0024249738217506246
sS'icao'
p5075
F0.0006921954562409703
sS'angus'
p5076
F0.00173137105270322
sS'hurley'
p5077
F0.0006921954562409703
sS'chunjiang'
p5078
I0
sS'hmas'
p5079
F0.0006921954562409703
sS'raaf'
p5080
F0.004157811466549702
sS'ntsb'
p5081
F0.0010387343904118527
sS'tho'
p5082
F0.0006921954562409703
sS'pham'
p5083
F0.0010382931843614554
sS'karpal'
p5084
F0.001385287707853075
sS'petaling'
p5085
F0.0
sS'maraldi'
p5086
F0.001384832118532338
sS'kozel'
p5087
F0.0010382931843614554
sS'interpol'
p5088
F0.006928864282808886
sS'hassan'
p5089
F0.0010387343904118527
sS'adenan'
p5090
F8.494951839769862e-05
sS'roos'
p5091
F0.002770581304649607
sS'chunyong'
p5092
I0
ssS'maraldi'
p5093
(dp5094
S'minh'
p5095
F0.001384832118532338
sS'manmohan'
p5096
F0.002077468780823705
sS'cocos'
p5097
F0.00173137105270322
sS'memali'
p5098
F0.003464176366847496
sS'rosmah'
p5099
I0
sS'ali'
p5100
F0.001384832118532338
sS'esscom'
p5101
F0.003810743280602481
sS'khalid'
p5102
F0.006268961856701726
sS'balingian'
p5103
F0.00173137105270322
sS'reuters'
p5104
F0.006234240477640978
sS'orion'
p5105
F0.004156786080504241
sS'zahid'
p5106
F0.0027710460097565264
sS'rodzali'
p5107
F0.0024244835765291216
sS'tony'
p5108
F0.002162873888542141
sS'klia'
p5109
F0.0027696642370646754
sS'perak'
p5110
F0.0038097804001683785
sS'osama'
p5111
F0.001384832118532338
sS'najib'
p5112
F0.00866022314698927
sS'facebook'
p5113
F0.002770581304649607
sS'zaharie'
p5114
F0.009701358938443384
sS'pouria'
p5115
F0.0009542607341736413
sS'jackson'
p5116
F0.001384832118532338
sS'altantuyaa'
p5117
I0
sS'sulaiman'
p5118
I0
sS'fariq'
p5119
F0.00727493170537019
sS'pakatan'
p5120
F0.002077924370144442
sS'amsa'
p5121
F0.002077924370144442
sS'mukah'
p5122
F0.001384832118532338
sS'talbott'
p5123
F0.001384832118532338
sS'andaman'
p5124
F0.0027692230310142783
sS'yahya'
p5125
F0.0011232427027591542
sS'melanau'
p5126
F0.001384832118532338
sS'taib'
p5127
F0.0034637082121624775
sS'lrb'
p5128
I0
sS'anwar'
p5129
F0.009355865794675941
sS'hishammuddin'
p5130
F0.00943879085054988
sS'khairul'
p5131
F0.001384832118532338
sS'mca'
p5132
F0.00173137105270322
sS'xinhua'
p5133
F0.0027710460097565264
sS'ronald'
p5134
F0.0013003584622941267
sS'digitalglobe'
p5135
F0.00173137105270322
sS'taliban'
p5136
F0.003117610484041992
sS'inmarsat'
p5137
F0.004503366346580086
sS'delavar'
p5138
F0.0009542607341736413
sS'matthews'
p5139
F0.002077924370144442
sS'mahathir'
p5140
F0.002077924370144442
sS'francis'
p5141
F0.0024244835765291216
sS'azharuddin'
p5142
F0.0024235665089441904
sS'phu'
p5143
F0.001730929846652823
sS'kota'
p5144
F0.004501490879088633
sS'qaeda'
p5145
F0.00173137105270322
sS'sabah'
p5146
F0.017326442343244146
sS'nicobar'
p5147
F0.001384832118532338
sS'boeing'
p5148
F0.016628627399060496
sS'adams'
p5149
F0.00173137105270322
sS'umno'
p5150
F0.003117610484041992
sS'icao'
p5151
F0.001384832118532338
sS'angus'
p5152
F0.0024240077149945876
sS'hurley'
p5153
F0.001384832118532338
sS'chunjiang'
p5154
I0
sS'hmas'
p5155
F0.001384832118532338
sS'raaf'
p5156
F0.002060954759211124
sS'ntsb'
p5157
F0.00173137105270322
sS'tho'
p5158
F0.001384832118532338
sS'pham'
p5159
F0.001730929846652823
sS'karpal'
p5160
F0.002077924370144442
sS'petaling'
p5161
F0.001384832118532338
sS'maraldi'
p5162
F0.0
sS'kozel'
p5163
F8.494951839769862e-05
sS'interpol'
p5164
F0.003951359176074907
sS'hassan'
p5165
F0.00173137105270322
sS'adenan'
p5166
F0.00173137105270322
sS'roos'
p5167
F0.0027710225107000037
sS'chunyong'
p5168
I0
ssS'kozel'
p5169
(dp5170
S'minh'
p5171
F0.0010382931843614554
sS'manmohan'
p5172
F0.0017309298466528231
sS'cocos'
p5173
F0.001384832118532338
sS'memali'
p5174
F0.0031176374326766145
sS'rosmah'
p5175
I0
sS'ali'
p5176
F0.0010382931843614554
sS'esscom'
p5177
F0.0034642043464315985
sS'khalid'
p5178
F0.005922422922530844
sS'balingian'
p5179
F0.0013848321185323377
sS'reuters'
p5180
F0.005887701543470097
sS'orion'
p5181
F0.003810247146333359
sS'zahid'
p5182
F0.002424507075585644
sS'rodzali'
p5183
F0.0020779446423582395
sS'tony'
p5184
F0.0020779243701444425
sS'klia'
p5185
F0.0024231253028937933
sS'perak'
p5186
F0.0034632414659974964
sS'osama'
p5187
F0.0010382931843614554
sS'najib'
p5188
F0.008313684212818388
sS'facebook'
p5189
F0.0024240423704787245
sS'zaharie'
p5190
F0.009354820004272502
sS'pouria'
p5191
F0.0006077218000027591
sS'jackson'
p5192
F0.0010382931843614554
sS'altantuyaa'
p5193
I0
sS'sulaiman'
p5194
I0
sS'fariq'
p5195
F0.006928392771199309
sS'pakatan'
p5196
F0.00173138543597356
sS'amsa'
p5197
F0.00173138543597356
sS'mukah'
p5198
F0.0010382931843614554
sS'talbott'
p5199
F0.0010382931843614554
sS'andaman'
p5200
F0.002422684096843396
sS'yahya'
p5201
F0.0010382931843614554
sS'melanau'
p5202
F0.0010382931843614554
sS'taib'
p5203
F0.0031171692779915945
sS'lrb'
p5204
I0
sS'anwar'
p5205
F0.009009326860505058
sS'hishammuddin'
p5206
F0.009353841332152182
sS'khairul'
p5207
F0.0010382931843614554
sS'mca'
p5208
F0.001384832118532338
sS'xinhua'
p5209
F0.002424507075585644
sS'ronald'
p5210
F0.0009538195281232442
sS'digitalglobe'
p5211
F0.001384832118532338
sS'taliban'
p5212
F0.0027710715498711095
sS'inmarsat'
p5213
F0.004156827412409204
sS'delavar'
p5214
F0.0006077218000027591
sS'matthews'
p5215
F0.00173138543597356
sS'mahathir'
p5216
F0.00173138543597356
sS'francis'
p5217
F0.0020779446423582395
sS'azharuddin'
p5218
F0.0020770275747733083
sS'phu'
p5219
F0.0013843909124819408
sS'kota'
p5220
F0.00415495194491775
sS'qaeda'
p5221
F0.001384832118532338
sS'sabah'
p5222
F0.016979903409073262
sS'nicobar'
p5223
F0.0010382931843614554
sS'boeing'
p5224
F0.016713576917458194
sS'adams'
p5225
F0.001384832118532338
sS'umno'
p5226
F0.0027710715498711095
sS'icao'
p5227
F0.0010382931843614554
sS'angus'
p5228
F0.0020774687808237055
sS'hurley'
p5229
F0.0010382931843614554
sS'chunjiang'
p5230
I0
sS'hmas'
p5231
F0.0010382931843614554
sS'raaf'
p5232
F0.002783964913143193
sS'ntsb'
p5233
F0.001384832118532338
sS'tho'
p5234
F0.0010382931843614554
sS'pham'
p5235
F0.0013843909124819408
sS'karpal'
p5236
F0.00173138543597356
sS'petaling'
p5237
F0.0010382931843614554
sS'maraldi'
p5238
F8.494951839769862e-05
sS'kozel'
p5239
F0.0
sS'interpol'
p5240
F0.0042633220318339035
sS'hassan'
p5241
F0.001384832118532338
sS'adenan'
p5242
F0.0013848321185323377
sS'roos'
p5243
F0.0024244835765291216
sS'chunyong'
p5244
I0
ssS'interpol'
p5245
(dp5246
S'minh'
p5247
F0.006928864282808887
sS'manmohan'
p5248
F0.007621500945100254
sS'cocos'
p5249
F0.007275403216979768
sS'memali'
p5250
F0.009008208531124044
sS'rosmah'
p5251
I0
sS'ali'
p5252
F0.004905619909623595
sS'esscom'
p5253
F0.009354775444879029
sS'khalid'
p5254
F0.006369542817698385
sS'balingian'
p5255
F0.007275403216979768
sS'reuters'
p5256
F0.01001661768450542
sS'orion'
p5257
F0.008631358743609652
sS'zahid'
p5258
F0.008315078174033074
sS'rodzali'
p5259
F0.00796851574080567
sS'tony'
p5260
F0.007410705903149482
sS'klia'
p5261
F0.00735991152932707
sS'perak'
p5262
F0.009353812564444928
sS'osama'
p5263
F0.006928864282808887
sS'najib'
p5264
F0.014204255311265818
sS'facebook'
p5265
F0.008314613468926157
sS'zaharie'
p5266
F0.014121727466749131
sS'pouria'
p5267
F0.003870069254192302
sS'jackson'
p5268
F0.006928864282808887
sS'altantuyaa'
p5269
I0
sS'sulaiman'
p5270
I0
sS'fariq'
p5271
F0.01091139412561843
sS'pakatan'
p5272
F0.007621956534420991
sS'amsa'
p5273
F0.007621956534420991
sS'mukah'
p5274
F0.006928864282808886
sS'talbott'
p5275
F0.006928864282808887
sS'andaman'
p5276
F0.007621059739049856
sS'yahya'
p5277
F0.006371074717366496
sS'melanau'
p5278
F0.006928864282808886
sS'taib'
p5279
F0.009007740376439026
sS'lrb'
p5280
I0
sS'anwar'
p5281
F0.014899897958952493
sS'hishammuddin'
p5282
F0.013732837993143069
sS'khairul'
p5283
F0.006928864282808887
sS'mca'
p5284
F0.007275403216979769
sS'xinhua'
p5285
F0.008315078174033074
sS'ronald'
p5286
F0.004216166982312789
sS'digitalglobe'
p5287
F0.0063216183449656144
sS'taliban'
p5288
F0.00866164264831854
sS'inmarsat'
p5289
F0.010047398510856634
sS'delavar'
p5290
F0.003870069254192302
sS'matthews'
p5291
F0.007621956534420991
sS'mahathir'
p5292
F0.007621956534420991
sS'francis'
p5293
F0.00796851574080567
sS'azharuddin'
p5294
F0.006205943715808631
sS'phu'
p5295
F0.006582766554688401
sS'kota'
p5296
F0.009091738171351027
sS'qaeda'
p5297
F0.007275403216979769
sS'sabah'
p5298
F0.02287047450752069
sS'nicobar'
p5299
F0.006928864282808887
sS'boeing'
p5300
F0.01746413291318792
sS'adams'
p5301
F0.007275403216979769
sS'umno'
p5302
F0.00866164264831854
sS'icao'
p5303
F0.006928864282808887
sS'angus'
p5304
F0.007968039879271136
sS'hurley'
p5305
F0.006928864282808887
sS'chunjiang'
p5306
I0
sS'hmas'
p5307
F0.006928864282808887
sS'raaf'
p5308
F0.006046257437134965
sS'ntsb'
p5309
F0.007275403216979769
sS'tho'
p5310
F0.006236668826567916
sS'pham'
p5311
F0.006582766554688401
sS'karpal'
p5312
F0.007621956534420991
sS'petaling'
p5313
F0.006928864282808886
sS'maraldi'
p5314
F0.003951359176074907
sS'kozel'
p5315
F0.0042633220318339035
sS'interpol'
p5316
F0.0
sS'hassan'
p5317
F0.007275403216979768
sS'adenan'
p5318
F0.007275403216979768
sS'roos'
p5319
F0.00586032184922268
sS'chunyong'
p5320
I0
ssS'hassan'
p5321
(dp5322
S'minh'
p5323
F0.0010387343904118527
sS'manmohan'
p5324
F0.00173137105270322
sS'cocos'
p5325
F0.0013852733245827348
sS'memali'
p5326
F0.0031180786387270116
sS'rosmah'
p5327
I0
sS'ali'
p5328
F0.001730929846652823
sS'esscom'
p5329
F0.0034646455524819956
sS'khalid'
p5330
F0.0072735155609654776
sS'balingian'
p5331
F0.0013852733245827348
sS'reuters'
p5332
F0.006580338205761463
sS'orion'
p5333
F0.004502883808624727
sS'zahid'
p5334
F0.002424948281636041
sS'rodzali'
p5335
F0.002078385848408636
sS'tony'
p5336
F0.0027705610324358096
sS'klia'
p5337
F0.0024235665089441904
sS'perak'
p5338
F0.0034636826720478935
sS'osama'
p5339
F0.0010387343904118527
sS'najib'
p5340
F0.008314125418868785
sS'facebook'
p5341
F0.0024244835765291216
sS'zaharie'
p5342
F0.009355261210322898
sS'pouria'
p5343
F0.0017318266420239571
sS'jackson'
p5344
F0.0010387343904118527
sS'altantuyaa'
p5345
I0
sS'sulaiman'
p5346
I0
sS'fariq'
p5347
F0.006928833977249705
sS'pakatan'
p5348
F0.0017318266420239571
sS'amsa'
p5349
F0.0017318266420239571
sS'mukah'
p5350
F0.0010387343904118527
sS'talbott'
p5351
F0.0010387343904118527
sS'andaman'
p5352
F0.0024231253028937933
sS'yahya'
p5353
F0.001730929846652823
sS'melanau'
p5354
F0.0010387343904118527
sS'taib'
p5355
F0.003117610484041992
sS'lrb'
p5356
I0
sS'anwar'
p5357
F0.009009768066555457
sS'hishammuddin'
p5358
F0.01004647799444355
sS'khairul'
p5359
F0.0010387343904118527
sS'mca'
p5360
F0.0013852733245827348
sS'xinhua'
p5361
F0.002424948281636041
sS'ronald'
p5362
F0.002077924370144442
sS'digitalglobe'
p5363
F0.0013852733245827348
sS'taliban'
p5364
F0.0027715127559215067
sS'inmarsat'
p5365
F0.004157268618459601
sS'delavar'
p5366
F0.0017318266420239571
sS'matthews'
p5367
F0.0017318266420239571
sS'mahathir'
p5368
F0.0017318266420239571
sS'francis'
p5369
F0.002078385848408636
sS'azharuddin'
p5370
F0.002769664237064676
sS'phu'
p5371
F0.001384832118532338
sS'kota'
p5372
F0.004155393150968147
sS'qaeda'
p5373
F0.0013852733245827348
sS'sabah'
p5374
F0.016980344615123658
sS'nicobar'
p5375
F0.0010387343904118527
sS'boeing'
p5376
F0.018359998451763716
sS'adams'
p5377
F0.0013852733245827348
sS'umno'
p5378
F0.0027715127559215067
sS'icao'
p5379
F0.0010387343904118527
sS'angus'
p5380
F0.002077909986874102
sS'hurley'
p5381
F0.0010387343904118527
sS'chunjiang'
p5382
I0
sS'hmas'
p5383
F0.0010387343904118527
sS'raaf'
p5384
F0.004504350400720584
sS'ntsb'
p5385
F0.0013852733245827348
sS'tho'
p5386
F0.0010387343904118527
sS'pham'
p5387
F0.001384832118532338
sS'karpal'
p5388
F0.0017318266420239571
sS'petaling'
p5389
F0.0010387343904118527
sS'maraldi'
p5390
F0.00173137105270322
sS'kozel'
p5391
F0.001384832118532338
sS'interpol'
p5392
F0.007275403216979768
sS'hassan'
p5393
F0.0
sS'adenan'
p5394
F0.0013852733245827348
sS'roos'
p5395
F0.0031171202388204887
sS'chunyong'
p5396
I0
ssS'adenan'
p5397
(dp5398
S'minh'
p5399
F0.0010387343904118527
sS'manmohan'
p5400
F0.00173137105270322
sS'cocos'
p5401
F0.0013852733245827348
sS'memali'
p5402
F0.0031180786387270116
sS'rosmah'
p5403
I0
sS'ali'
p5404
F0.001730929846652823
sS'esscom'
p5405
F0.0034646455524819956
sS'khalid'
p5406
F0.0072735155609654776
sS'balingian'
p5407
F0.0
sS'reuters'
p5408
F0.006580338205761463
sS'orion'
p5409
F0.004502883808624726
sS'zahid'
p5410
F0.002424948281636041
sS'rodzali'
p5411
F0.002078385848408636
sS'tony'
p5412
F0.0027705610324358096
sS'klia'
p5413
F0.0024235665089441904
sS'perak'
p5414
F0.003463682672047894
sS'osama'
p5415
F0.0010387343904118527
sS'najib'
p5416
F0.008314125418868784
sS'facebook'
p5417
F0.0024244835765291216
sS'zaharie'
p5418
F0.0093552612103229
sS'pouria'
p5419
F0.0017318266420239571
sS'jackson'
p5420
F0.0010387343904118527
sS'altantuyaa'
p5421
I0
sS'sulaiman'
p5422
I0
sS'fariq'
p5423
F0.006928833977249705
sS'pakatan'
p5424
F0.0017318266420239571
sS'amsa'
p5425
F0.0017318266420239571
sS'mukah'
p5426
F8.494951839769862e-05
sS'talbott'
p5427
F0.0010387343904118527
sS'andaman'
p5428
F0.0024231253028937933
sS'yahya'
p5429
F0.001730929846652823
sS'melanau'
p5430
F8.494951839769862e-05
sS'taib'
p5431
F0.0021638256120278376
sS'lrb'
p5432
I0
sS'anwar'
p5433
F0.009009768066555457
sS'hishammuddin'
p5434
F0.01004647799444355
sS'khairul'
p5435
F0.0010387343904118527
sS'mca'
p5436
F0.0013852733245827348
sS'xinhua'
p5437
F0.002424948281636041
sS'ronald'
p5438
F0.002077924370144442
sS'digitalglobe'
p5439
F0.0013852733245827348
sS'taliban'
p5440
F0.0027715127559215067
sS'inmarsat'
p5441
F0.004157268618459602
sS'delavar'
p5442
F0.0017318266420239571
sS'matthews'
p5443
F0.0017318266420239571
sS'mahathir'
p5444
F0.0017318266420239571
sS'francis'
p5445
F0.002078385848408636
sS'azharuddin'
p5446
F0.002769664237064676
sS'phu'
p5447
F0.0013848321185323377
sS'kota'
p5448
F0.0032016082789539935
sS'qaeda'
p5449
F0.0013852733245827348
sS'sabah'
p5450
F0.014190851245493713
sS'nicobar'
p5451
F0.0010387343904118527
sS'boeing'
p5452
F0.01835999845176372
sS'adams'
p5453
F0.0013852733245827348
sS'umno'
p5454
F0.0027715127559215067
sS'icao'
p5455
F0.0010387343904118527
sS'angus'
p5456
F0.0020779099868741026
sS'hurley'
p5457
F0.0010387343904118527
sS'chunjiang'
p5458
I0
sS'hmas'
p5459
F0.0010387343904118527
sS'raaf'
p5460
F0.004504350400720584
sS'ntsb'
p5461
F0.0013852733245827348
sS'tho'
p5462
F0.0010387343904118527
sS'pham'
p5463
F0.0013848321185323377
sS'karpal'
p5464
F0.0017318266420239571
sS'petaling'
p5465
F8.494951839769862e-05
sS'maraldi'
p5466
F0.00173137105270322
sS'kozel'
p5467
F0.0013848321185323377
sS'interpol'
p5468
F0.007275403216979768
sS'hassan'
p5469
F0.0013852733245827348
sS'adenan'
p5470
F0.0
sS'roos'
p5471
F0.0031171202388204896
sS'chunyong'
p5472
I0
ssS'roos'
p5473
(dp5474
S'minh'
p5475
F0.002770581304649607
sS'manmohan'
p5476
F0.0034632179669409745
sS'cocos'
p5477
F0.0031171202388204887
sS'memali'
p5478
F0.004849925552964766
sS'rosmah'
p5479
I0
sS'ali'
p5480
F0.0018167964326354527
sS'esscom'
p5481
F0.00519649246671975
sS'khalid'
p5482
F0.006700926170804841
sS'balingian'
p5483
F0.0031171202388204896
sS'reuters'
p5484
F0.007619989663758247
sS'orion'
p5485
F0.005542535266621511
sS'zahid'
p5486
F0.004156795195873796
sS'rodzali'
p5487
F0.0038102327626463907
sS'tony'
p5488
F0.004502407946673564
sS'klia'
p5489
F0.003201628551167791
sS'perak'
p5490
F0.005195529586285648
sS'osama'
p5491
F0.002770581304649607
sS'najib'
p5492
F0.010045972333106539
sS'facebook'
p5493
F0.001384832118532338
sS'zaharie'
p5494
F0.006199059490324739
sS'pouria'
p5495
F0.00234000992029091
sS'jackson'
p5496
F0.002770581304649607
sS'altantuyaa'
p5497
I0
sS'sulaiman'
p5498
I0
sS'fariq'
p5499
F0.003358673163490653
sS'pakatan'
p5500
F0.003463673556261711
sS'amsa'
p5501
F0.003463673556261711
sS'mukah'
p5502
F0.002770581304649607
sS'talbott'
p5503
F0.002770581304649607
sS'andaman'
p5504
F0.004154972217131547
sS'yahya'
p5505
F0.003462776760890577
sS'melanau'
p5506
F0.002770581304649607
sS'taib'
p5507
F0.004849457398279747
sS'lrb'
p5508
I0
sS'anwar'
p5509
F0.01074161498079321
sS'hishammuddin'
p5510
F0.010824540036667149
sS'khairul'
p5511
F0.002770581304649607
sS'mca'
p5512
F0.0031171202388204887
sS'xinhua'
p5513
F0.004156795195873796
sS'ronald'
p5514
F0.0026861076484113954
sS'digitalglobe'
p5515
F0.0031171202388204887
sS'taliban'
p5516
F0.004503359670159262
sS'inmarsat'
p5517
F0.005889115532697355
sS'delavar'
p5518
F0.00234000992029091
sS'matthews'
p5519
F0.003463673556261711
sS'mahathir'
p5520
F0.003463673556261711
sS'francis'
p5521
F0.0038102327626463907
sS'azharuddin'
p5522
F0.0038093156950614595
sS'phu'
p5523
F0.0031166790327700916
sS'kota'
p5524
F0.004933455193191748
sS'qaeda'
p5525
F0.0031171202388204887
sS'sabah'
p5526
F0.018712191529361412
sS'nicobar'
p5527
F0.002770581304649607
sS'boeing'
p5528
F0.015329059651271565
sS'adams'
p5529
F0.0031171202388204887
sS'umno'
p5530
F0.004503359670159262
sS'icao'
p5531
F0.002770581304649607
sS'angus'
p5532
F0.0038097569011118567
sS'hurley'
p5533
F0.002770581304649607
sS'chunjiang'
p5534
I0
sS'hmas'
p5535
F0.002770581304649607
sS'raaf'
p5536
F0.006236197314958338
sS'ntsb'
p5537
F0.0031171202388204887
sS'tho'
p5538
F0.002770581304649607
sS'pham'
p5539
F0.0031166790327700916
sS'karpal'
p5540
F0.003463673556261711
sS'petaling'
p5541
F0.002770581304649607
sS'maraldi'
p5542
F0.0027710225107000037
sS'kozel'
p5543
F0.0024244835765291216
sS'interpol'
p5544
F0.00586032184922268
sS'hassan'
p5545
F0.0031171202388204887
sS'adenan'
p5546
F0.0031171202388204896
sS'roos'
p5547
F0.0
sS'chunyong'
p5548
I0
ssS'chunyong'
p5549
(dp5550
S'minh'
p5551
I0
sS'manmohan'
p5552
I0
sS'cocos'
p5553
I0
sS'memali'
p5554
I0
sS'rosmah'
p5555
I0
sS'ali'
p5556
I0
sS'esscom'
p5557
I0
sS'khalid'
p5558
I0
sS'balingian'
p5559
I0
sS'reuters'
p5560
I0
sS'orion'
p5561
I0
sS'zahid'
p5562
I0
sS'rodzali'
p5563
I0
sS'tony'
p5564
I0
sS'klia'
p5565
I0
sS'perak'
p5566
I0
sS'osama'
p5567
I0
sS'najib'
p5568
I0
sS'facebook'
p5569
I0
sS'zaharie'
p5570
I0
sS'pouria'
p5571
I0
sS'jackson'
p5572
I0
sS'altantuyaa'
p5573
I0
sS'sulaiman'
p5574
I0
sS'fariq'
p5575
I0
sS'pakatan'
p5576
I0
sS'amsa'
p5577
I0
sS'mukah'
p5578
I0
sS'talbott'
p5579
I0
sS'andaman'
p5580
I0
sS'yahya'
p5581
I0
sS'melanau'
p5582
I0
sS'taib'
p5583
I0
sS'lrb'
p5584
I0
sS'anwar'
p5585
I0
sS'hishammuddin'
p5586
I0
sS'khairul'
p5587
I0
sS'mca'
p5588
I0
sS'xinhua'
p5589
I0
sS'ronald'
p5590
I0
sS'digitalglobe'
p5591
I0
sS'taliban'
p5592
I0
sS'inmarsat'
p5593
I0
sS'delavar'
p5594
I0
sS'matthews'
p5595
I0
sS'mahathir'
p5596
I0
sS'francis'
p5597
I0
sS'azharuddin'
p5598
I0
sS'phu'
p5599
I0
sS'kota'
p5600
I0
sS'qaeda'
p5601
I0
sS'sabah'
p5602
I0
sS'nicobar'
p5603
I0
sS'boeing'
p5604
I0
sS'adams'
p5605
I0
sS'umno'
p5606
I0
sS'icao'
p5607
I0
sS'angus'
p5608
I0
sS'hurley'
p5609
I0
sS'chunjiang'
p5610
I0
sS'hmas'
p5611
I0
sS'raaf'
p5612
I0
sS'ntsb'
p5613
I0
sS'tho'
p5614
I0
sS'pham'
p5615
I0
sS'karpal'
p5616
I0
sS'petaling'
p5617
I0
sS'maraldi'
p5618
I0
sS'kozel'
p5619
I0
sS'interpol'
p5620
I0
sS'hassan'
p5621
I0
sS'adenan'
p5622
I0
sS'roos'
p5623
I0
sS'chunyong'
p5624
I0
ss.